ARM GAS  C:\Users\trehans\AppData\Local\Temp\ccqaDwbq.s 			page 1


   1              		.cpu cortex-m0
   2              		.fpu softvfp
   3              		.eabi_attribute 20, 1
   4              		.eabi_attribute 21, 1
   5              		.eabi_attribute 23, 3
   6              		.eabi_attribute 24, 1
   7              		.eabi_attribute 25, 1
   8              		.eabi_attribute 26, 1
   9              		.eabi_attribute 30, 6
  10              		.eabi_attribute 34, 0
  11              		.eabi_attribute 18, 4
  12              		.code	16
  13              		.file	"isr_spi.c"
  14              		.text
  15              	.Ltext0:
  16              		.cfi_sections	.debug_frame
  17              		.section	.text.isr_spi_Start,"ax",%progbits
  18              		.align	2
  19              		.global	isr_spi_Start
  20              		.code	16
  21              		.thumb_func
  22              		.type	isr_spi_Start, %function
  23              	isr_spi_Start:
  24              	.LFB0:
  25              		.file 1 ".\\Generated_Source\\PSoC4\\isr_spi.c"
   1:.\Generated_Source\PSoC4/isr_spi.c **** /*******************************************************************************
   2:.\Generated_Source\PSoC4/isr_spi.c **** * File Name: isr_spi.c  
   3:.\Generated_Source\PSoC4/isr_spi.c **** * Version 1.70
   4:.\Generated_Source\PSoC4/isr_spi.c **** *
   5:.\Generated_Source\PSoC4/isr_spi.c **** *  Description:
   6:.\Generated_Source\PSoC4/isr_spi.c **** *   API for controlling the state of an interrupt.
   7:.\Generated_Source\PSoC4/isr_spi.c **** *
   8:.\Generated_Source\PSoC4/isr_spi.c **** *
   9:.\Generated_Source\PSoC4/isr_spi.c **** *  Note:
  10:.\Generated_Source\PSoC4/isr_spi.c **** *
  11:.\Generated_Source\PSoC4/isr_spi.c **** ********************************************************************************
  12:.\Generated_Source\PSoC4/isr_spi.c **** * Copyright 2008-2012, Cypress Semiconductor Corporation.  All rights reserved.
  13:.\Generated_Source\PSoC4/isr_spi.c **** * You may use this file only in accordance with the license, terms, conditions, 
  14:.\Generated_Source\PSoC4/isr_spi.c **** * disclaimers, and limitations in the end user license agreement accompanying 
  15:.\Generated_Source\PSoC4/isr_spi.c **** * the software package with which this file was provided.
  16:.\Generated_Source\PSoC4/isr_spi.c **** *******************************************************************************/
  17:.\Generated_Source\PSoC4/isr_spi.c **** 
  18:.\Generated_Source\PSoC4/isr_spi.c **** 
  19:.\Generated_Source\PSoC4/isr_spi.c **** #include <cydevice_trm.h>
  20:.\Generated_Source\PSoC4/isr_spi.c **** #include <CyLib.h>
  21:.\Generated_Source\PSoC4/isr_spi.c **** #include <isr_spi.h>
  22:.\Generated_Source\PSoC4/isr_spi.c **** 
  23:.\Generated_Source\PSoC4/isr_spi.c **** #if !defined(isr_spi__REMOVED) /* Check for removal by optimization */
  24:.\Generated_Source\PSoC4/isr_spi.c **** 
  25:.\Generated_Source\PSoC4/isr_spi.c **** /*******************************************************************************
  26:.\Generated_Source\PSoC4/isr_spi.c **** *  Place your includes, defines and code here 
  27:.\Generated_Source\PSoC4/isr_spi.c **** ********************************************************************************/
  28:.\Generated_Source\PSoC4/isr_spi.c **** /* `#START isr_spi_intc` */
  29:.\Generated_Source\PSoC4/isr_spi.c **** 
  30:.\Generated_Source\PSoC4/isr_spi.c **** /* `#END` */
  31:.\Generated_Source\PSoC4/isr_spi.c **** 
  32:.\Generated_Source\PSoC4/isr_spi.c **** extern cyisraddress CyRamVectors[CYINT_IRQ_BASE + CY_NUM_INTERRUPTS];
ARM GAS  C:\Users\trehans\AppData\Local\Temp\ccqaDwbq.s 			page 2


  33:.\Generated_Source\PSoC4/isr_spi.c **** 
  34:.\Generated_Source\PSoC4/isr_spi.c **** /* Declared in startup, used to set unused interrupts to. */
  35:.\Generated_Source\PSoC4/isr_spi.c **** CY_ISR_PROTO(IntDefaultHandler);
  36:.\Generated_Source\PSoC4/isr_spi.c **** 
  37:.\Generated_Source\PSoC4/isr_spi.c **** 
  38:.\Generated_Source\PSoC4/isr_spi.c **** /*******************************************************************************
  39:.\Generated_Source\PSoC4/isr_spi.c **** * Function Name: isr_spi_Start
  40:.\Generated_Source\PSoC4/isr_spi.c **** ********************************************************************************
  41:.\Generated_Source\PSoC4/isr_spi.c **** *
  42:.\Generated_Source\PSoC4/isr_spi.c **** * Summary:
  43:.\Generated_Source\PSoC4/isr_spi.c **** *  Set up the interrupt and enable it.
  44:.\Generated_Source\PSoC4/isr_spi.c **** *
  45:.\Generated_Source\PSoC4/isr_spi.c **** * Parameters:  
  46:.\Generated_Source\PSoC4/isr_spi.c **** *   None
  47:.\Generated_Source\PSoC4/isr_spi.c **** *
  48:.\Generated_Source\PSoC4/isr_spi.c **** * Return:
  49:.\Generated_Source\PSoC4/isr_spi.c **** *   None
  50:.\Generated_Source\PSoC4/isr_spi.c **** *
  51:.\Generated_Source\PSoC4/isr_spi.c **** *******************************************************************************/
  52:.\Generated_Source\PSoC4/isr_spi.c **** void isr_spi_Start(void)
  53:.\Generated_Source\PSoC4/isr_spi.c **** {
  26              		.loc 1 53 0
  27              		.cfi_startproc
  28 0000 80B5     		push	{r7, lr}
  29              	.LCFI0:
  30              		.cfi_def_cfa_offset 8
  31              		.cfi_offset 7, -8
  32              		.cfi_offset 14, -4
  33 0002 00AF     		add	r7, sp, #0
  34              	.LCFI1:
  35              		.cfi_def_cfa_register 7
  54:.\Generated_Source\PSoC4/isr_spi.c ****     /* For all we know the interrupt is active. */
  55:.\Generated_Source\PSoC4/isr_spi.c ****     isr_spi_Disable();
  36              		.loc 1 55 0
  37 0004 FFF7FEFF 		bl	isr_spi_Disable
  56:.\Generated_Source\PSoC4/isr_spi.c **** 
  57:.\Generated_Source\PSoC4/isr_spi.c ****     /* Set the ISR to point to the isr_spi Interrupt. */
  58:.\Generated_Source\PSoC4/isr_spi.c ****     isr_spi_SetVector(&isr_spi_Interrupt);
  38              		.loc 1 58 0
  39 0008 054B     		ldr	r3, .L2
  40 000a 181C     		mov	r0, r3
  41 000c FFF7FEFF 		bl	isr_spi_SetVector
  59:.\Generated_Source\PSoC4/isr_spi.c **** 
  60:.\Generated_Source\PSoC4/isr_spi.c ****     /* Set the priority. */
  61:.\Generated_Source\PSoC4/isr_spi.c ****     isr_spi_SetPriority((uint8)isr_spi_INTC_PRIOR_NUMBER);
  42              		.loc 1 61 0
  43 0010 0320     		mov	r0, #3
  44 0012 FFF7FEFF 		bl	isr_spi_SetPriority
  62:.\Generated_Source\PSoC4/isr_spi.c **** 
  63:.\Generated_Source\PSoC4/isr_spi.c ****     /* Enable it. */
  64:.\Generated_Source\PSoC4/isr_spi.c ****     isr_spi_Enable();
  45              		.loc 1 64 0
  46 0016 FFF7FEFF 		bl	isr_spi_Enable
  65:.\Generated_Source\PSoC4/isr_spi.c **** }
  47              		.loc 1 65 0
  48 001a BD46     		mov	sp, r7
  49              		@ sp needed for prologue
ARM GAS  C:\Users\trehans\AppData\Local\Temp\ccqaDwbq.s 			page 3


  50 001c 80BD     		pop	{r7, pc}
  51              	.L3:
  52 001e C046     		.align	2
  53              	.L2:
  54 0020 00000000 		.word	isr_spi_Interrupt
  55              		.cfi_endproc
  56              	.LFE0:
  57              		.size	isr_spi_Start, .-isr_spi_Start
  58              		.section	.text.isr_spi_StartEx,"ax",%progbits
  59              		.align	2
  60              		.global	isr_spi_StartEx
  61              		.code	16
  62              		.thumb_func
  63              		.type	isr_spi_StartEx, %function
  64              	isr_spi_StartEx:
  65              	.LFB1:
  66:.\Generated_Source\PSoC4/isr_spi.c **** 
  67:.\Generated_Source\PSoC4/isr_spi.c **** 
  68:.\Generated_Source\PSoC4/isr_spi.c **** /*******************************************************************************
  69:.\Generated_Source\PSoC4/isr_spi.c **** * Function Name: isr_spi_StartEx
  70:.\Generated_Source\PSoC4/isr_spi.c **** ********************************************************************************
  71:.\Generated_Source\PSoC4/isr_spi.c **** *
  72:.\Generated_Source\PSoC4/isr_spi.c **** * Summary:
  73:.\Generated_Source\PSoC4/isr_spi.c **** *  Set up the interrupt and enable it.
  74:.\Generated_Source\PSoC4/isr_spi.c **** *
  75:.\Generated_Source\PSoC4/isr_spi.c **** * Parameters:  
  76:.\Generated_Source\PSoC4/isr_spi.c **** *   address: Address of the ISR to set in the interrupt vector table.
  77:.\Generated_Source\PSoC4/isr_spi.c **** *
  78:.\Generated_Source\PSoC4/isr_spi.c **** * Return:
  79:.\Generated_Source\PSoC4/isr_spi.c **** *   None
  80:.\Generated_Source\PSoC4/isr_spi.c **** *
  81:.\Generated_Source\PSoC4/isr_spi.c **** *******************************************************************************/
  82:.\Generated_Source\PSoC4/isr_spi.c **** void isr_spi_StartEx(cyisraddress address)
  83:.\Generated_Source\PSoC4/isr_spi.c **** {
  66              		.loc 1 83 0
  67              		.cfi_startproc
  68 0000 80B5     		push	{r7, lr}
  69              	.LCFI2:
  70              		.cfi_def_cfa_offset 8
  71              		.cfi_offset 7, -8
  72              		.cfi_offset 14, -4
  73 0002 82B0     		sub	sp, sp, #8
  74              	.LCFI3:
  75              		.cfi_def_cfa_offset 16
  76 0004 00AF     		add	r7, sp, #0
  77              	.LCFI4:
  78              		.cfi_def_cfa_register 7
  79 0006 7860     		str	r0, [r7, #4]
  84:.\Generated_Source\PSoC4/isr_spi.c ****     /* For all we know the interrupt is active. */
  85:.\Generated_Source\PSoC4/isr_spi.c ****     isr_spi_Disable();
  80              		.loc 1 85 0
  81 0008 FFF7FEFF 		bl	isr_spi_Disable
  86:.\Generated_Source\PSoC4/isr_spi.c **** 
  87:.\Generated_Source\PSoC4/isr_spi.c ****     /* Set the ISR to point to the isr_spi Interrupt. */
  88:.\Generated_Source\PSoC4/isr_spi.c ****     isr_spi_SetVector(address);
  82              		.loc 1 88 0
  83 000c 7B68     		ldr	r3, [r7, #4]
ARM GAS  C:\Users\trehans\AppData\Local\Temp\ccqaDwbq.s 			page 4


  84 000e 181C     		mov	r0, r3
  85 0010 FFF7FEFF 		bl	isr_spi_SetVector
  89:.\Generated_Source\PSoC4/isr_spi.c **** 
  90:.\Generated_Source\PSoC4/isr_spi.c ****     /* Set the priority. */
  91:.\Generated_Source\PSoC4/isr_spi.c ****     isr_spi_SetPriority((uint8)isr_spi_INTC_PRIOR_NUMBER);
  86              		.loc 1 91 0
  87 0014 0320     		mov	r0, #3
  88 0016 FFF7FEFF 		bl	isr_spi_SetPriority
  92:.\Generated_Source\PSoC4/isr_spi.c **** 
  93:.\Generated_Source\PSoC4/isr_spi.c ****     /* Enable it. */
  94:.\Generated_Source\PSoC4/isr_spi.c ****     isr_spi_Enable();
  89              		.loc 1 94 0
  90 001a FFF7FEFF 		bl	isr_spi_Enable
  95:.\Generated_Source\PSoC4/isr_spi.c **** }
  91              		.loc 1 95 0
  92 001e BD46     		mov	sp, r7
  93 0020 02B0     		add	sp, sp, #8
  94              		@ sp needed for prologue
  95 0022 80BD     		pop	{r7, pc}
  96              		.cfi_endproc
  97              	.LFE1:
  98              		.size	isr_spi_StartEx, .-isr_spi_StartEx
  99              		.section	.text.isr_spi_Stop,"ax",%progbits
 100              		.align	2
 101              		.global	isr_spi_Stop
 102              		.code	16
 103              		.thumb_func
 104              		.type	isr_spi_Stop, %function
 105              	isr_spi_Stop:
 106              	.LFB2:
  96:.\Generated_Source\PSoC4/isr_spi.c **** 
  97:.\Generated_Source\PSoC4/isr_spi.c **** 
  98:.\Generated_Source\PSoC4/isr_spi.c **** /*******************************************************************************
  99:.\Generated_Source\PSoC4/isr_spi.c **** * Function Name: isr_spi_Stop
 100:.\Generated_Source\PSoC4/isr_spi.c **** ********************************************************************************
 101:.\Generated_Source\PSoC4/isr_spi.c **** *
 102:.\Generated_Source\PSoC4/isr_spi.c **** * Summary:
 103:.\Generated_Source\PSoC4/isr_spi.c **** *   Disables and removes the interrupt.
 104:.\Generated_Source\PSoC4/isr_spi.c **** *
 105:.\Generated_Source\PSoC4/isr_spi.c **** * Parameters:  
 106:.\Generated_Source\PSoC4/isr_spi.c **** *
 107:.\Generated_Source\PSoC4/isr_spi.c **** * Return:
 108:.\Generated_Source\PSoC4/isr_spi.c **** *   None
 109:.\Generated_Source\PSoC4/isr_spi.c **** *
 110:.\Generated_Source\PSoC4/isr_spi.c **** *******************************************************************************/
 111:.\Generated_Source\PSoC4/isr_spi.c **** void isr_spi_Stop(void)
 112:.\Generated_Source\PSoC4/isr_spi.c **** {
 107              		.loc 1 112 0
 108              		.cfi_startproc
 109 0000 80B5     		push	{r7, lr}
 110              	.LCFI5:
 111              		.cfi_def_cfa_offset 8
 112              		.cfi_offset 7, -8
 113              		.cfi_offset 14, -4
 114 0002 00AF     		add	r7, sp, #0
 115              	.LCFI6:
 116              		.cfi_def_cfa_register 7
ARM GAS  C:\Users\trehans\AppData\Local\Temp\ccqaDwbq.s 			page 5


 113:.\Generated_Source\PSoC4/isr_spi.c ****     /* Disable this interrupt. */
 114:.\Generated_Source\PSoC4/isr_spi.c ****     isr_spi_Disable();
 117              		.loc 1 114 0
 118 0004 FFF7FEFF 		bl	isr_spi_Disable
 115:.\Generated_Source\PSoC4/isr_spi.c **** 
 116:.\Generated_Source\PSoC4/isr_spi.c ****     /* Set the ISR to point to the passive one. */
 117:.\Generated_Source\PSoC4/isr_spi.c ****     isr_spi_SetVector(&IntDefaultHandler);
 119              		.loc 1 117 0
 120 0008 024B     		ldr	r3, .L6
 121 000a 181C     		mov	r0, r3
 122 000c FFF7FEFF 		bl	isr_spi_SetVector
 118:.\Generated_Source\PSoC4/isr_spi.c **** }
 123              		.loc 1 118 0
 124 0010 BD46     		mov	sp, r7
 125              		@ sp needed for prologue
 126 0012 80BD     		pop	{r7, pc}
 127              	.L7:
 128              		.align	2
 129              	.L6:
 130 0014 00000000 		.word	IntDefaultHandler
 131              		.cfi_endproc
 132              	.LFE2:
 133              		.size	isr_spi_Stop, .-isr_spi_Stop
 134              		.section	.text.isr_spi_Interrupt,"ax",%progbits
 135              		.align	2
 136              		.global	isr_spi_Interrupt
 137              		.code	16
 138              		.thumb_func
 139              		.type	isr_spi_Interrupt, %function
 140              	isr_spi_Interrupt:
 141              	.LFB3:
 119:.\Generated_Source\PSoC4/isr_spi.c **** 
 120:.\Generated_Source\PSoC4/isr_spi.c **** 
 121:.\Generated_Source\PSoC4/isr_spi.c **** /*******************************************************************************
 122:.\Generated_Source\PSoC4/isr_spi.c **** * Function Name: isr_spi_Interrupt
 123:.\Generated_Source\PSoC4/isr_spi.c **** ********************************************************************************
 124:.\Generated_Source\PSoC4/isr_spi.c **** *
 125:.\Generated_Source\PSoC4/isr_spi.c **** * Summary:
 126:.\Generated_Source\PSoC4/isr_spi.c **** *   The default Interrupt Service Routine for isr_spi.
 127:.\Generated_Source\PSoC4/isr_spi.c **** *
 128:.\Generated_Source\PSoC4/isr_spi.c **** *   Add custom code between the coments to keep the next version of this file
 129:.\Generated_Source\PSoC4/isr_spi.c **** *   from over writting your code.
 130:.\Generated_Source\PSoC4/isr_spi.c **** *
 131:.\Generated_Source\PSoC4/isr_spi.c **** * Parameters:  
 132:.\Generated_Source\PSoC4/isr_spi.c **** *   None
 133:.\Generated_Source\PSoC4/isr_spi.c **** *
 134:.\Generated_Source\PSoC4/isr_spi.c **** * Return:
 135:.\Generated_Source\PSoC4/isr_spi.c **** *   None
 136:.\Generated_Source\PSoC4/isr_spi.c **** *
 137:.\Generated_Source\PSoC4/isr_spi.c **** *******************************************************************************/
 138:.\Generated_Source\PSoC4/isr_spi.c **** CY_ISR(isr_spi_Interrupt)
 139:.\Generated_Source\PSoC4/isr_spi.c **** {
 142              		.loc 1 139 0
 143              		.cfi_startproc
 144 0000 80B5     		push	{r7, lr}
 145              	.LCFI7:
 146              		.cfi_def_cfa_offset 8
ARM GAS  C:\Users\trehans\AppData\Local\Temp\ccqaDwbq.s 			page 6


 147              		.cfi_offset 7, -8
 148              		.cfi_offset 14, -4
 149 0002 00AF     		add	r7, sp, #0
 150              	.LCFI8:
 151              		.cfi_def_cfa_register 7
 140:.\Generated_Source\PSoC4/isr_spi.c ****     /*  Place your Interrupt code here. */
 141:.\Generated_Source\PSoC4/isr_spi.c ****     /* `#START isr_spi_Interrupt` */
 142:.\Generated_Source\PSoC4/isr_spi.c ****     /* `#END` */
 143:.\Generated_Source\PSoC4/isr_spi.c **** }
 152              		.loc 1 143 0
 153 0004 BD46     		mov	sp, r7
 154              		@ sp needed for prologue
 155 0006 80BD     		pop	{r7, pc}
 156              		.cfi_endproc
 157              	.LFE3:
 158              		.size	isr_spi_Interrupt, .-isr_spi_Interrupt
 159              		.section	.text.isr_spi_SetVector,"ax",%progbits
 160              		.align	2
 161              		.global	isr_spi_SetVector
 162              		.code	16
 163              		.thumb_func
 164              		.type	isr_spi_SetVector, %function
 165              	isr_spi_SetVector:
 166              	.LFB4:
 144:.\Generated_Source\PSoC4/isr_spi.c **** 
 145:.\Generated_Source\PSoC4/isr_spi.c **** 
 146:.\Generated_Source\PSoC4/isr_spi.c **** /*******************************************************************************
 147:.\Generated_Source\PSoC4/isr_spi.c **** * Function Name: isr_spi_SetVector
 148:.\Generated_Source\PSoC4/isr_spi.c **** ********************************************************************************
 149:.\Generated_Source\PSoC4/isr_spi.c **** *
 150:.\Generated_Source\PSoC4/isr_spi.c **** * Summary:
 151:.\Generated_Source\PSoC4/isr_spi.c **** *   Change the ISR vector for the Interrupt. Note calling isr_spi_Start
 152:.\Generated_Source\PSoC4/isr_spi.c **** *   will override any effect this method would have had. To set the vector 
 153:.\Generated_Source\PSoC4/isr_spi.c **** *   before the component has been started use isr_spi_StartEx instead.
 154:.\Generated_Source\PSoC4/isr_spi.c **** *
 155:.\Generated_Source\PSoC4/isr_spi.c **** * Parameters:
 156:.\Generated_Source\PSoC4/isr_spi.c **** *   address: Address of the ISR to set in the interrupt vector table.
 157:.\Generated_Source\PSoC4/isr_spi.c **** *
 158:.\Generated_Source\PSoC4/isr_spi.c **** * Return:
 159:.\Generated_Source\PSoC4/isr_spi.c **** *   None
 160:.\Generated_Source\PSoC4/isr_spi.c **** *
 161:.\Generated_Source\PSoC4/isr_spi.c **** *******************************************************************************/
 162:.\Generated_Source\PSoC4/isr_spi.c **** void isr_spi_SetVector(cyisraddress address)
 163:.\Generated_Source\PSoC4/isr_spi.c **** {
 167              		.loc 1 163 0
 168              		.cfi_startproc
 169 0000 80B5     		push	{r7, lr}
 170              	.LCFI9:
 171              		.cfi_def_cfa_offset 8
 172              		.cfi_offset 7, -8
 173              		.cfi_offset 14, -4
 174 0002 82B0     		sub	sp, sp, #8
 175              	.LCFI10:
 176              		.cfi_def_cfa_offset 16
 177 0004 00AF     		add	r7, sp, #0
 178              	.LCFI11:
 179              		.cfi_def_cfa_register 7
ARM GAS  C:\Users\trehans\AppData\Local\Temp\ccqaDwbq.s 			page 7


 180 0006 7860     		str	r0, [r7, #4]
 164:.\Generated_Source\PSoC4/isr_spi.c ****     CyRamVectors[CYINT_IRQ_BASE + isr_spi__INTC_NUMBER] = address;
 181              		.loc 1 164 0
 182 0008 024B     		ldr	r3, .L10
 183 000a 7A68     		ldr	r2, [r7, #4]
 184 000c DA64     		str	r2, [r3, #76]
 165:.\Generated_Source\PSoC4/isr_spi.c **** }
 185              		.loc 1 165 0
 186 000e BD46     		mov	sp, r7
 187 0010 02B0     		add	sp, sp, #8
 188              		@ sp needed for prologue
 189 0012 80BD     		pop	{r7, pc}
 190              	.L11:
 191              		.align	2
 192              	.L10:
 193 0014 00000000 		.word	CyRamVectors
 194              		.cfi_endproc
 195              	.LFE4:
 196              		.size	isr_spi_SetVector, .-isr_spi_SetVector
 197              		.section	.text.isr_spi_GetVector,"ax",%progbits
 198              		.align	2
 199              		.global	isr_spi_GetVector
 200              		.code	16
 201              		.thumb_func
 202              		.type	isr_spi_GetVector, %function
 203              	isr_spi_GetVector:
 204              	.LFB5:
 166:.\Generated_Source\PSoC4/isr_spi.c **** 
 167:.\Generated_Source\PSoC4/isr_spi.c **** 
 168:.\Generated_Source\PSoC4/isr_spi.c **** /*******************************************************************************
 169:.\Generated_Source\PSoC4/isr_spi.c **** * Function Name: isr_spi_GetVector
 170:.\Generated_Source\PSoC4/isr_spi.c **** ********************************************************************************
 171:.\Generated_Source\PSoC4/isr_spi.c **** *
 172:.\Generated_Source\PSoC4/isr_spi.c **** * Summary:
 173:.\Generated_Source\PSoC4/isr_spi.c **** *   Gets the "address" of the current ISR vector for the Interrupt.
 174:.\Generated_Source\PSoC4/isr_spi.c **** *
 175:.\Generated_Source\PSoC4/isr_spi.c **** * Parameters:
 176:.\Generated_Source\PSoC4/isr_spi.c **** *   None
 177:.\Generated_Source\PSoC4/isr_spi.c **** *
 178:.\Generated_Source\PSoC4/isr_spi.c **** * Return:
 179:.\Generated_Source\PSoC4/isr_spi.c **** *   Address of the ISR in the interrupt vector table.
 180:.\Generated_Source\PSoC4/isr_spi.c **** *
 181:.\Generated_Source\PSoC4/isr_spi.c **** *******************************************************************************/
 182:.\Generated_Source\PSoC4/isr_spi.c **** cyisraddress isr_spi_GetVector(void)
 183:.\Generated_Source\PSoC4/isr_spi.c **** {
 205              		.loc 1 183 0
 206              		.cfi_startproc
 207 0000 80B5     		push	{r7, lr}
 208              	.LCFI12:
 209              		.cfi_def_cfa_offset 8
 210              		.cfi_offset 7, -8
 211              		.cfi_offset 14, -4
 212 0002 00AF     		add	r7, sp, #0
 213              	.LCFI13:
 214              		.cfi_def_cfa_register 7
 184:.\Generated_Source\PSoC4/isr_spi.c ****     return CyRamVectors[CYINT_IRQ_BASE + isr_spi__INTC_NUMBER];
 215              		.loc 1 184 0
ARM GAS  C:\Users\trehans\AppData\Local\Temp\ccqaDwbq.s 			page 8


 216 0004 024B     		ldr	r3, .L14
 217 0006 DB6C     		ldr	r3, [r3, #76]
 185:.\Generated_Source\PSoC4/isr_spi.c **** }
 218              		.loc 1 185 0
 219 0008 181C     		mov	r0, r3
 220 000a BD46     		mov	sp, r7
 221              		@ sp needed for prologue
 222 000c 80BD     		pop	{r7, pc}
 223              	.L15:
 224 000e C046     		.align	2
 225              	.L14:
 226 0010 00000000 		.word	CyRamVectors
 227              		.cfi_endproc
 228              	.LFE5:
 229              		.size	isr_spi_GetVector, .-isr_spi_GetVector
 230              		.section	.text.isr_spi_SetPriority,"ax",%progbits
 231              		.align	2
 232              		.global	isr_spi_SetPriority
 233              		.code	16
 234              		.thumb_func
 235              		.type	isr_spi_SetPriority, %function
 236              	isr_spi_SetPriority:
 237              	.LFB6:
 186:.\Generated_Source\PSoC4/isr_spi.c **** 
 187:.\Generated_Source\PSoC4/isr_spi.c **** 
 188:.\Generated_Source\PSoC4/isr_spi.c **** /*******************************************************************************
 189:.\Generated_Source\PSoC4/isr_spi.c **** * Function Name: isr_spi_SetPriority
 190:.\Generated_Source\PSoC4/isr_spi.c **** ********************************************************************************
 191:.\Generated_Source\PSoC4/isr_spi.c **** *
 192:.\Generated_Source\PSoC4/isr_spi.c **** * Summary:
 193:.\Generated_Source\PSoC4/isr_spi.c **** *   Sets the Priority of the Interrupt. Note calling isr_spi_Start
 194:.\Generated_Source\PSoC4/isr_spi.c **** *   or isr_spi_StartEx will override any effect this method would 
 195:.\Generated_Source\PSoC4/isr_spi.c **** *   have had. This method should only be called after isr_spi_Start or 
 196:.\Generated_Source\PSoC4/isr_spi.c **** *   isr_spi_StartEx has been called. To set the initial
 197:.\Generated_Source\PSoC4/isr_spi.c **** *   priority for the component use the cydwr file in the tool.
 198:.\Generated_Source\PSoC4/isr_spi.c **** *
 199:.\Generated_Source\PSoC4/isr_spi.c **** * Parameters:
 200:.\Generated_Source\PSoC4/isr_spi.c **** *   priority: Priority of the interrupt. 0 - 3, 0 being the highest.
 201:.\Generated_Source\PSoC4/isr_spi.c **** *
 202:.\Generated_Source\PSoC4/isr_spi.c **** * Return:
 203:.\Generated_Source\PSoC4/isr_spi.c **** *   None
 204:.\Generated_Source\PSoC4/isr_spi.c **** *
 205:.\Generated_Source\PSoC4/isr_spi.c **** *******************************************************************************/
 206:.\Generated_Source\PSoC4/isr_spi.c **** void isr_spi_SetPriority(uint8 priority)
 207:.\Generated_Source\PSoC4/isr_spi.c **** {
 238              		.loc 1 207 0
 239              		.cfi_startproc
 240 0000 90B5     		push	{r4, r7, lr}
 241              	.LCFI14:
 242              		.cfi_def_cfa_offset 12
 243              		.cfi_offset 4, -12
 244              		.cfi_offset 7, -8
 245              		.cfi_offset 14, -4
 246 0002 85B0     		sub	sp, sp, #20
 247              	.LCFI15:
 248              		.cfi_def_cfa_offset 32
 249 0004 00AF     		add	r7, sp, #0
ARM GAS  C:\Users\trehans\AppData\Local\Temp\ccqaDwbq.s 			page 9


 250              	.LCFI16:
 251              		.cfi_def_cfa_register 7
 252 0006 021C     		mov	r2, r0
 253 0008 FB1D     		add	r3, r7, #7
 254 000a 1A70     		strb	r2, [r3]
 208:.\Generated_Source\PSoC4/isr_spi.c **** 	uint8 interruptState;
 209:.\Generated_Source\PSoC4/isr_spi.c ****     uint32 priorityOffset = ((isr_spi__INTC_NUMBER % 4u) * 8u) + 6u;
 255              		.loc 1 209 0
 256 000c 1E23     		mov	r3, #30
 257 000e FB60     		str	r3, [r7, #12]
 210:.\Generated_Source\PSoC4/isr_spi.c ****     
 211:.\Generated_Source\PSoC4/isr_spi.c **** 	interruptState = CyEnterCriticalSection();
 258              		.loc 1 211 0
 259 0010 3C1C     		mov	r4, r7
 260 0012 0B34     		add	r4, r4, #11
 261 0014 FFF7FEFF 		bl	CyEnterCriticalSection
 262 0018 031C     		mov	r3, r0
 263 001a 2370     		strb	r3, [r4]
 212:.\Generated_Source\PSoC4/isr_spi.c ****     *isr_spi_INTC_PRIOR = (*isr_spi_INTC_PRIOR & (uint32)(~isr_spi__INTC_PRIOR_MASK)) |
 264              		.loc 1 212 0
 265 001c 0A4B     		ldr	r3, .L17
 266 001e 0A4A     		ldr	r2, .L17
 267 0020 1268     		ldr	r2, [r2]
 268 0022 9200     		lsl	r2, r2, #2
 269 0024 9108     		lsr	r1, r2, #2
 213:.\Generated_Source\PSoC4/isr_spi.c ****                                     ((uint32)priority << priorityOffset);
 270              		.loc 1 213 0
 271 0026 FA1D     		add	r2, r7, #7
 272 0028 1078     		ldrb	r0, [r2]
 273 002a FA68     		ldr	r2, [r7, #12]
 274 002c 041C     		mov	r4, r0
 275 002e 9440     		lsl	r4, r4, r2
 276 0030 221C     		mov	r2, r4
 212:.\Generated_Source\PSoC4/isr_spi.c ****     *isr_spi_INTC_PRIOR = (*isr_spi_INTC_PRIOR & (uint32)(~isr_spi__INTC_PRIOR_MASK)) |
 277              		.loc 1 212 0
 278 0032 0A43     		orr	r2, r1
 279 0034 1A60     		str	r2, [r3]
 214:.\Generated_Source\PSoC4/isr_spi.c **** 	CyExitCriticalSection(interruptState);
 280              		.loc 1 214 0
 281 0036 3B1C     		mov	r3, r7
 282 0038 0B33     		add	r3, r3, #11
 283 003a 1B78     		ldrb	r3, [r3]
 284 003c 181C     		mov	r0, r3
 285 003e FFF7FEFF 		bl	CyExitCriticalSection
 215:.\Generated_Source\PSoC4/isr_spi.c **** }
 286              		.loc 1 215 0
 287 0042 BD46     		mov	sp, r7
 288 0044 05B0     		add	sp, sp, #20
 289              		@ sp needed for prologue
 290 0046 90BD     		pop	{r4, r7, pc}
 291              	.L18:
 292              		.align	2
 293              	.L17:
 294 0048 00E400E0 		.word	-536812544
 295              		.cfi_endproc
 296              	.LFE6:
 297              		.size	isr_spi_SetPriority, .-isr_spi_SetPriority
ARM GAS  C:\Users\trehans\AppData\Local\Temp\ccqaDwbq.s 			page 10


 298              		.section	.text.isr_spi_GetPriority,"ax",%progbits
 299              		.align	2
 300              		.global	isr_spi_GetPriority
 301              		.code	16
 302              		.thumb_func
 303              		.type	isr_spi_GetPriority, %function
 304              	isr_spi_GetPriority:
 305              	.LFB7:
 216:.\Generated_Source\PSoC4/isr_spi.c **** 
 217:.\Generated_Source\PSoC4/isr_spi.c **** 
 218:.\Generated_Source\PSoC4/isr_spi.c **** /*******************************************************************************
 219:.\Generated_Source\PSoC4/isr_spi.c **** * Function Name: isr_spi_GetPriority
 220:.\Generated_Source\PSoC4/isr_spi.c **** ********************************************************************************
 221:.\Generated_Source\PSoC4/isr_spi.c **** *
 222:.\Generated_Source\PSoC4/isr_spi.c **** * Summary:
 223:.\Generated_Source\PSoC4/isr_spi.c **** *   Gets the Priority of the Interrupt.
 224:.\Generated_Source\PSoC4/isr_spi.c **** *
 225:.\Generated_Source\PSoC4/isr_spi.c **** * Parameters:
 226:.\Generated_Source\PSoC4/isr_spi.c **** *   None
 227:.\Generated_Source\PSoC4/isr_spi.c **** *
 228:.\Generated_Source\PSoC4/isr_spi.c **** * Return:
 229:.\Generated_Source\PSoC4/isr_spi.c **** *   Priority of the interrupt. 0 - 3, 0 being the highest.
 230:.\Generated_Source\PSoC4/isr_spi.c **** *
 231:.\Generated_Source\PSoC4/isr_spi.c **** *******************************************************************************/
 232:.\Generated_Source\PSoC4/isr_spi.c **** uint8 isr_spi_GetPriority(void)
 233:.\Generated_Source\PSoC4/isr_spi.c **** {
 306              		.loc 1 233 0
 307              		.cfi_startproc
 308 0000 80B5     		push	{r7, lr}
 309              	.LCFI17:
 310              		.cfi_def_cfa_offset 8
 311              		.cfi_offset 7, -8
 312              		.cfi_offset 14, -4
 313 0002 82B0     		sub	sp, sp, #8
 314              	.LCFI18:
 315              		.cfi_def_cfa_offset 16
 316 0004 00AF     		add	r7, sp, #0
 317              	.LCFI19:
 318              		.cfi_def_cfa_register 7
 234:.\Generated_Source\PSoC4/isr_spi.c ****     uint32 priority;
 235:.\Generated_Source\PSoC4/isr_spi.c **** 	uint32 priorityOffset = ((isr_spi__INTC_NUMBER % 4u) * 8u) + 6u;
 319              		.loc 1 235 0
 320 0006 1E23     		mov	r3, #30
 321 0008 7B60     		str	r3, [r7, #4]
 236:.\Generated_Source\PSoC4/isr_spi.c **** 
 237:.\Generated_Source\PSoC4/isr_spi.c ****     priority = (*isr_spi_INTC_PRIOR & isr_spi__INTC_PRIOR_MASK) >> priorityOffset;
 322              		.loc 1 237 0
 323 000a 074B     		ldr	r3, .L21
 324 000c 1B68     		ldr	r3, [r3]
 325 000e 9B0F     		lsr	r3, r3, #30
 326 0010 9A07     		lsl	r2, r3, #30
 327 0012 7B68     		ldr	r3, [r7, #4]
 328 0014 111C     		mov	r1, r2
 329 0016 D940     		lsr	r1, r1, r3
 330 0018 0B1C     		mov	r3, r1
 331 001a 3B60     		str	r3, [r7]
 238:.\Generated_Source\PSoC4/isr_spi.c **** 
ARM GAS  C:\Users\trehans\AppData\Local\Temp\ccqaDwbq.s 			page 11


 239:.\Generated_Source\PSoC4/isr_spi.c ****     return (uint8)priority;
 332              		.loc 1 239 0
 333 001c 3B68     		ldr	r3, [r7]
 334 001e DBB2     		uxtb	r3, r3
 240:.\Generated_Source\PSoC4/isr_spi.c **** }
 335              		.loc 1 240 0
 336 0020 181C     		mov	r0, r3
 337 0022 BD46     		mov	sp, r7
 338 0024 02B0     		add	sp, sp, #8
 339              		@ sp needed for prologue
 340 0026 80BD     		pop	{r7, pc}
 341              	.L22:
 342              		.align	2
 343              	.L21:
 344 0028 00E400E0 		.word	-536812544
 345              		.cfi_endproc
 346              	.LFE7:
 347              		.size	isr_spi_GetPriority, .-isr_spi_GetPriority
 348              		.section	.text.isr_spi_Enable,"ax",%progbits
 349              		.align	2
 350              		.global	isr_spi_Enable
 351              		.code	16
 352              		.thumb_func
 353              		.type	isr_spi_Enable, %function
 354              	isr_spi_Enable:
 355              	.LFB8:
 241:.\Generated_Source\PSoC4/isr_spi.c **** 
 242:.\Generated_Source\PSoC4/isr_spi.c **** 
 243:.\Generated_Source\PSoC4/isr_spi.c **** /*******************************************************************************
 244:.\Generated_Source\PSoC4/isr_spi.c **** * Function Name: isr_spi_Enable
 245:.\Generated_Source\PSoC4/isr_spi.c **** ********************************************************************************
 246:.\Generated_Source\PSoC4/isr_spi.c **** *
 247:.\Generated_Source\PSoC4/isr_spi.c **** * Summary:
 248:.\Generated_Source\PSoC4/isr_spi.c **** *   Enables the interrupt.
 249:.\Generated_Source\PSoC4/isr_spi.c **** *
 250:.\Generated_Source\PSoC4/isr_spi.c **** * Parameters:
 251:.\Generated_Source\PSoC4/isr_spi.c **** *   None
 252:.\Generated_Source\PSoC4/isr_spi.c **** *
 253:.\Generated_Source\PSoC4/isr_spi.c **** * Return:
 254:.\Generated_Source\PSoC4/isr_spi.c **** *   None
 255:.\Generated_Source\PSoC4/isr_spi.c **** *
 256:.\Generated_Source\PSoC4/isr_spi.c **** *******************************************************************************/
 257:.\Generated_Source\PSoC4/isr_spi.c **** void isr_spi_Enable(void)
 258:.\Generated_Source\PSoC4/isr_spi.c **** {
 356              		.loc 1 258 0
 357              		.cfi_startproc
 358 0000 80B5     		push	{r7, lr}
 359              	.LCFI20:
 360              		.cfi_def_cfa_offset 8
 361              		.cfi_offset 7, -8
 362              		.cfi_offset 14, -4
 363 0002 00AF     		add	r7, sp, #0
 364              	.LCFI21:
 365              		.cfi_def_cfa_register 7
 259:.\Generated_Source\PSoC4/isr_spi.c ****     /* Enable the general interrupt. */
 260:.\Generated_Source\PSoC4/isr_spi.c ****     *isr_spi_INTC_SET_EN = isr_spi__INTC_MASK;
 366              		.loc 1 260 0
ARM GAS  C:\Users\trehans\AppData\Local\Temp\ccqaDwbq.s 			page 12


 367 0004 024B     		ldr	r3, .L24
 368 0006 0822     		mov	r2, #8
 369 0008 1A60     		str	r2, [r3]
 261:.\Generated_Source\PSoC4/isr_spi.c **** }
 370              		.loc 1 261 0
 371 000a BD46     		mov	sp, r7
 372              		@ sp needed for prologue
 373 000c 80BD     		pop	{r7, pc}
 374              	.L25:
 375 000e C046     		.align	2
 376              	.L24:
 377 0010 00E100E0 		.word	-536813312
 378              		.cfi_endproc
 379              	.LFE8:
 380              		.size	isr_spi_Enable, .-isr_spi_Enable
 381              		.section	.text.isr_spi_GetState,"ax",%progbits
 382              		.align	2
 383              		.global	isr_spi_GetState
 384              		.code	16
 385              		.thumb_func
 386              		.type	isr_spi_GetState, %function
 387              	isr_spi_GetState:
 388              	.LFB9:
 262:.\Generated_Source\PSoC4/isr_spi.c **** 
 263:.\Generated_Source\PSoC4/isr_spi.c **** 
 264:.\Generated_Source\PSoC4/isr_spi.c **** /*******************************************************************************
 265:.\Generated_Source\PSoC4/isr_spi.c **** * Function Name: isr_spi_GetState
 266:.\Generated_Source\PSoC4/isr_spi.c **** ********************************************************************************
 267:.\Generated_Source\PSoC4/isr_spi.c **** *
 268:.\Generated_Source\PSoC4/isr_spi.c **** * Summary:
 269:.\Generated_Source\PSoC4/isr_spi.c **** *   Gets the state (enabled, disabled) of the Interrupt.
 270:.\Generated_Source\PSoC4/isr_spi.c **** *
 271:.\Generated_Source\PSoC4/isr_spi.c **** * Parameters:
 272:.\Generated_Source\PSoC4/isr_spi.c **** *   None
 273:.\Generated_Source\PSoC4/isr_spi.c **** *
 274:.\Generated_Source\PSoC4/isr_spi.c **** * Return:
 275:.\Generated_Source\PSoC4/isr_spi.c **** *   1 if enabled, 0 if disabled.
 276:.\Generated_Source\PSoC4/isr_spi.c **** *
 277:.\Generated_Source\PSoC4/isr_spi.c **** *******************************************************************************/
 278:.\Generated_Source\PSoC4/isr_spi.c **** uint8 isr_spi_GetState(void)
 279:.\Generated_Source\PSoC4/isr_spi.c **** {
 389              		.loc 1 279 0
 390              		.cfi_startproc
 391 0000 80B5     		push	{r7, lr}
 392              	.LCFI22:
 393              		.cfi_def_cfa_offset 8
 394              		.cfi_offset 7, -8
 395              		.cfi_offset 14, -4
 396 0002 00AF     		add	r7, sp, #0
 397              	.LCFI23:
 398              		.cfi_def_cfa_register 7
 280:.\Generated_Source\PSoC4/isr_spi.c ****     /* Get the state of the general interrupt. */
 281:.\Generated_Source\PSoC4/isr_spi.c ****     return ((*isr_spi_INTC_SET_EN & (uint32)isr_spi__INTC_MASK) != 0u) ? 1u:0u;
 399              		.loc 1 281 0
 400 0004 054B     		ldr	r3, .L30
 401 0006 1A68     		ldr	r2, [r3]
 402 0008 0823     		mov	r3, #8
ARM GAS  C:\Users\trehans\AppData\Local\Temp\ccqaDwbq.s 			page 13


 403 000a 1340     		and	r3, r2
 404 000c 01D0     		beq	.L27
 405              		.loc 1 281 0 is_stmt 0 discriminator 1
 406 000e 0123     		mov	r3, #1
 407 0010 00E0     		b	.L28
 408              	.L27:
 409              		.loc 1 281 0 discriminator 2
 410 0012 0023     		mov	r3, #0
 411              	.L28:
 282:.\Generated_Source\PSoC4/isr_spi.c **** }
 412              		.loc 1 282 0 is_stmt 1 discriminator 3
 413 0014 181C     		mov	r0, r3
 414 0016 BD46     		mov	sp, r7
 415              		@ sp needed for prologue
 416 0018 80BD     		pop	{r7, pc}
 417              	.L31:
 418 001a C046     		.align	2
 419              	.L30:
 420 001c 00E100E0 		.word	-536813312
 421              		.cfi_endproc
 422              	.LFE9:
 423              		.size	isr_spi_GetState, .-isr_spi_GetState
 424              		.section	.text.isr_spi_Disable,"ax",%progbits
 425              		.align	2
 426              		.global	isr_spi_Disable
 427              		.code	16
 428              		.thumb_func
 429              		.type	isr_spi_Disable, %function
 430              	isr_spi_Disable:
 431              	.LFB10:
 283:.\Generated_Source\PSoC4/isr_spi.c **** 
 284:.\Generated_Source\PSoC4/isr_spi.c **** 
 285:.\Generated_Source\PSoC4/isr_spi.c **** /*******************************************************************************
 286:.\Generated_Source\PSoC4/isr_spi.c **** * Function Name: isr_spi_Disable
 287:.\Generated_Source\PSoC4/isr_spi.c **** ********************************************************************************
 288:.\Generated_Source\PSoC4/isr_spi.c **** *
 289:.\Generated_Source\PSoC4/isr_spi.c **** * Summary:
 290:.\Generated_Source\PSoC4/isr_spi.c **** *   Disables the Interrupt.
 291:.\Generated_Source\PSoC4/isr_spi.c **** *
 292:.\Generated_Source\PSoC4/isr_spi.c **** * Parameters:
 293:.\Generated_Source\PSoC4/isr_spi.c **** *   None
 294:.\Generated_Source\PSoC4/isr_spi.c **** *
 295:.\Generated_Source\PSoC4/isr_spi.c **** * Return:
 296:.\Generated_Source\PSoC4/isr_spi.c **** *   None
 297:.\Generated_Source\PSoC4/isr_spi.c **** *
 298:.\Generated_Source\PSoC4/isr_spi.c **** *******************************************************************************/
 299:.\Generated_Source\PSoC4/isr_spi.c **** void isr_spi_Disable(void)
 300:.\Generated_Source\PSoC4/isr_spi.c **** {
 432              		.loc 1 300 0
 433              		.cfi_startproc
 434 0000 80B5     		push	{r7, lr}
 435              	.LCFI24:
 436              		.cfi_def_cfa_offset 8
 437              		.cfi_offset 7, -8
 438              		.cfi_offset 14, -4
 439 0002 00AF     		add	r7, sp, #0
 440              	.LCFI25:
ARM GAS  C:\Users\trehans\AppData\Local\Temp\ccqaDwbq.s 			page 14


 441              		.cfi_def_cfa_register 7
 301:.\Generated_Source\PSoC4/isr_spi.c ****     /* Disable the general interrupt. */
 302:.\Generated_Source\PSoC4/isr_spi.c ****     *isr_spi_INTC_CLR_EN = isr_spi__INTC_MASK;
 442              		.loc 1 302 0
 443 0004 024B     		ldr	r3, .L33
 444 0006 0822     		mov	r2, #8
 445 0008 1A60     		str	r2, [r3]
 303:.\Generated_Source\PSoC4/isr_spi.c **** }
 446              		.loc 1 303 0
 447 000a BD46     		mov	sp, r7
 448              		@ sp needed for prologue
 449 000c 80BD     		pop	{r7, pc}
 450              	.L34:
 451 000e C046     		.align	2
 452              	.L33:
 453 0010 80E100E0 		.word	-536813184
 454              		.cfi_endproc
 455              	.LFE10:
 456              		.size	isr_spi_Disable, .-isr_spi_Disable
 457              		.section	.text.isr_spi_SetPending,"ax",%progbits
 458              		.align	2
 459              		.global	isr_spi_SetPending
 460              		.code	16
 461              		.thumb_func
 462              		.type	isr_spi_SetPending, %function
 463              	isr_spi_SetPending:
 464              	.LFB11:
 304:.\Generated_Source\PSoC4/isr_spi.c **** 
 305:.\Generated_Source\PSoC4/isr_spi.c **** 
 306:.\Generated_Source\PSoC4/isr_spi.c **** /*******************************************************************************
 307:.\Generated_Source\PSoC4/isr_spi.c **** * Function Name: isr_spi_SetPending
 308:.\Generated_Source\PSoC4/isr_spi.c **** ********************************************************************************
 309:.\Generated_Source\PSoC4/isr_spi.c **** *
 310:.\Generated_Source\PSoC4/isr_spi.c **** * Summary:
 311:.\Generated_Source\PSoC4/isr_spi.c **** *   Causes the Interrupt to enter the pending state, a software method of
 312:.\Generated_Source\PSoC4/isr_spi.c **** *   generating the interrupt.
 313:.\Generated_Source\PSoC4/isr_spi.c **** *
 314:.\Generated_Source\PSoC4/isr_spi.c **** * Parameters:
 315:.\Generated_Source\PSoC4/isr_spi.c **** *   None
 316:.\Generated_Source\PSoC4/isr_spi.c **** *
 317:.\Generated_Source\PSoC4/isr_spi.c **** * Return:
 318:.\Generated_Source\PSoC4/isr_spi.c **** *   None
 319:.\Generated_Source\PSoC4/isr_spi.c **** *
 320:.\Generated_Source\PSoC4/isr_spi.c **** *******************************************************************************/
 321:.\Generated_Source\PSoC4/isr_spi.c **** void isr_spi_SetPending(void)
 322:.\Generated_Source\PSoC4/isr_spi.c **** {
 465              		.loc 1 322 0
 466              		.cfi_startproc
 467 0000 80B5     		push	{r7, lr}
 468              	.LCFI26:
 469              		.cfi_def_cfa_offset 8
 470              		.cfi_offset 7, -8
 471              		.cfi_offset 14, -4
 472 0002 00AF     		add	r7, sp, #0
 473              	.LCFI27:
 474              		.cfi_def_cfa_register 7
 323:.\Generated_Source\PSoC4/isr_spi.c ****     *isr_spi_INTC_SET_PD = isr_spi__INTC_MASK;
ARM GAS  C:\Users\trehans\AppData\Local\Temp\ccqaDwbq.s 			page 15


 475              		.loc 1 323 0
 476 0004 024B     		ldr	r3, .L36
 477 0006 0822     		mov	r2, #8
 478 0008 1A60     		str	r2, [r3]
 324:.\Generated_Source\PSoC4/isr_spi.c **** }
 479              		.loc 1 324 0
 480 000a BD46     		mov	sp, r7
 481              		@ sp needed for prologue
 482 000c 80BD     		pop	{r7, pc}
 483              	.L37:
 484 000e C046     		.align	2
 485              	.L36:
 486 0010 00E200E0 		.word	-536813056
 487              		.cfi_endproc
 488              	.LFE11:
 489              		.size	isr_spi_SetPending, .-isr_spi_SetPending
 490              		.section	.text.isr_spi_ClearPending,"ax",%progbits
 491              		.align	2
 492              		.global	isr_spi_ClearPending
 493              		.code	16
 494              		.thumb_func
 495              		.type	isr_spi_ClearPending, %function
 496              	isr_spi_ClearPending:
 497              	.LFB12:
 325:.\Generated_Source\PSoC4/isr_spi.c **** 
 326:.\Generated_Source\PSoC4/isr_spi.c **** 
 327:.\Generated_Source\PSoC4/isr_spi.c **** /*******************************************************************************
 328:.\Generated_Source\PSoC4/isr_spi.c **** * Function Name: isr_spi_ClearPending
 329:.\Generated_Source\PSoC4/isr_spi.c **** ********************************************************************************
 330:.\Generated_Source\PSoC4/isr_spi.c **** *
 331:.\Generated_Source\PSoC4/isr_spi.c **** * Summary:
 332:.\Generated_Source\PSoC4/isr_spi.c **** *   Clears a pending interrupt.
 333:.\Generated_Source\PSoC4/isr_spi.c **** *
 334:.\Generated_Source\PSoC4/isr_spi.c **** * Parameters:
 335:.\Generated_Source\PSoC4/isr_spi.c **** *   None
 336:.\Generated_Source\PSoC4/isr_spi.c **** *
 337:.\Generated_Source\PSoC4/isr_spi.c **** * Return:
 338:.\Generated_Source\PSoC4/isr_spi.c **** *   None
 339:.\Generated_Source\PSoC4/isr_spi.c **** *
 340:.\Generated_Source\PSoC4/isr_spi.c **** *******************************************************************************/
 341:.\Generated_Source\PSoC4/isr_spi.c **** void isr_spi_ClearPending(void)
 342:.\Generated_Source\PSoC4/isr_spi.c **** {
 498              		.loc 1 342 0
 499              		.cfi_startproc
 500 0000 80B5     		push	{r7, lr}
 501              	.LCFI28:
 502              		.cfi_def_cfa_offset 8
 503              		.cfi_offset 7, -8
 504              		.cfi_offset 14, -4
 505 0002 00AF     		add	r7, sp, #0
 506              	.LCFI29:
 507              		.cfi_def_cfa_register 7
 343:.\Generated_Source\PSoC4/isr_spi.c ****     *isr_spi_INTC_CLR_PD = isr_spi__INTC_MASK;
 508              		.loc 1 343 0
 509 0004 024B     		ldr	r3, .L39
 510 0006 0822     		mov	r2, #8
 511 0008 1A60     		str	r2, [r3]
ARM GAS  C:\Users\trehans\AppData\Local\Temp\ccqaDwbq.s 			page 16


 344:.\Generated_Source\PSoC4/isr_spi.c **** }
 512              		.loc 1 344 0
 513 000a BD46     		mov	sp, r7
 514              		@ sp needed for prologue
 515 000c 80BD     		pop	{r7, pc}
 516              	.L40:
 517 000e C046     		.align	2
 518              	.L39:
 519 0010 80E200E0 		.word	-536812928
 520              		.cfi_endproc
 521              	.LFE12:
 522              		.size	isr_spi_ClearPending, .-isr_spi_ClearPending
 523              		.text
 524              	.Letext0:
 525              		.file 2 "./Generated_Source/PSoC4/cytypes.h"