ARM GAS  C:\Users\trehans\AppData\Local\Temp\cc5KTHxe.s 			page 1


   1              		.cpu cortex-m0
   2              		.fpu softvfp
   3              		.eabi_attribute 20, 1
   4              		.eabi_attribute 21, 1
   5              		.eabi_attribute 23, 3
   6              		.eabi_attribute 24, 1
   7              		.eabi_attribute 25, 1
   8              		.eabi_attribute 26, 1
   9              		.eabi_attribute 30, 6
  10              		.eabi_attribute 34, 0
  11              		.eabi_attribute 18, 4
  12              		.code	16
  13              		.file	"main.c"
  14              		.text
  15              	.Ltext0:
  16              		.cfi_sections	.debug_frame
  17              		.global	x_position
  18              		.bss
  19              		.align	1
  20              		.type	x_position, %object
  21              		.size	x_position, 2
  22              	x_position:
  23 0000 0000     		.space	2
  24              		.global	y_position
  25              		.align	1
  26              		.type	y_position, %object
  27              		.size	y_position, 2
  28              	y_position:
  29 0002 0000     		.space	2
  30              		.comm	x_positions_template,512,4
  31              		.comm	y_positions_template,512,4
  32              		.global	pos_index_template
  33              		.align	1
  34              		.type	pos_index_template, %object
  35              		.size	pos_index_template, 2
  36              	pos_index_template:
  37 0004 0000     		.space	2
  38              		.comm	x_positions_test,512,4
  39              		.comm	y_positions_test,512,4
  40              		.global	pos_index_test
  41              		.align	1
  42              		.type	pos_index_test, %object
  43              		.size	pos_index_test, 2
  44              	pos_index_test:
  45 0006 0000     		.space	2
  46              		.global	pos_size
  47              		.data
  48              		.align	1
  49              		.type	pos_size, %object
  50              		.size	pos_size, 2
  51              	pos_size:
  52 0000 0001     		.short	256
  53              		.global	action_state
  54              		.bss
  55              		.type	action_state, %object
  56              		.size	action_state, 1
  57              	action_state:
ARM GAS  C:\Users\trehans\AppData\Local\Temp\cc5KTHxe.s 			page 2


  58 0008 00       		.space	1
  59              		.global	reading
  60 0009 000000   		.align	2
  61              		.type	reading, %object
  62              		.size	reading, 4
  63              	reading:
  64 000c 00000000 		.space	4
  65              		.global	debug_state
  66              		.type	debug_state, %object
  67              		.size	debug_state, 1
  68              	debug_state:
  69 0010 00       		.space	1
  70 0011 000000   		.section	.text.reset_all,"ax",%progbits
  71              		.align	2
  72              		.global	reset_all
  73              		.code	16
  74              		.thumb_func
  75              		.type	reset_all, %function
  76              	reset_all:
  77              	.LFB33:
  78              		.file 1 ".\\main.c"
   1:.\main.c      **** #include <project.h>
   2:.\main.c      **** #include <header.h>
   3:.\main.c      **** #include <stdio.h>
   4:.\main.c      **** 
   5:.\main.c      **** int16 x_position = 0;
   6:.\main.c      **** int16 y_position = 0;
   7:.\main.c      **** 
   8:.\main.c      **** int16 x_positions_template[256];
   9:.\main.c      **** int16 y_positions_template[256];
  10:.\main.c      **** uint16 pos_index_template = 0;
  11:.\main.c      **** 
  12:.\main.c      **** int16 x_positions_test[256];
  13:.\main.c      **** int16 y_positions_test[256];
  14:.\main.c      **** uint16 pos_index_test = 0;
  15:.\main.c      **** 
  16:.\main.c      **** uint16 pos_size = 256;
  17:.\main.c      **** 
  18:.\main.c      **** uint8 action_state = RECORDING;
  19:.\main.c      **** bool reading = false;
  20:.\main.c      **** 
  21:.\main.c      **** uint8 debug_state = LOW;
  22:.\main.c      **** 
  23:.\main.c      **** CY_ISR_PROTO(isr_spi_handler);
  24:.\main.c      **** CY_ISR_PROTO(isr_button_handler);
  25:.\main.c      **** 
  26:.\main.c      **** void reset_all() {
  79              		.loc 1 26 0
  80              		.cfi_startproc
  81 0000 80B5     		push	{r7, lr}
  82              	.LCFI0:
  83              		.cfi_def_cfa_offset 8
  84              		.cfi_offset 7, -8
  85              		.cfi_offset 14, -4
  86 0002 00AF     		add	r7, sp, #0
  87              	.LCFI1:
  88              		.cfi_def_cfa_register 7
ARM GAS  C:\Users\trehans\AppData\Local\Temp\cc5KTHxe.s 			page 3


  27:.\main.c      ****     // Reset everything back to initial values
  28:.\main.c      ****     x_position = 0;
  89              		.loc 1 28 0
  90 0004 0F4B     		ldr	r3, .L4
  91 0006 0022     		mov	r2, #0
  92 0008 1A80     		strh	r2, [r3]
  29:.\main.c      ****     y_position = 0;
  93              		.loc 1 29 0
  94 000a 0F4B     		ldr	r3, .L4+4
  95 000c 0022     		mov	r2, #0
  96 000e 1A80     		strh	r2, [r3]
  30:.\main.c      ****     if (action_state == RECORDING) {
  97              		.loc 1 30 0
  98 0010 0E4B     		ldr	r3, .L4+8
  99 0012 1B78     		ldrb	r3, [r3]
 100 0014 002B     		cmp	r3, #0
 101 0016 09D1     		bne	.L2
  31:.\main.c      ****         x_positions_template[0] = 0;
 102              		.loc 1 31 0
 103 0018 0D4B     		ldr	r3, .L4+12
 104 001a 0022     		mov	r2, #0
 105 001c 1A80     		strh	r2, [r3]
  32:.\main.c      ****         y_positions_template[0] = 0;
 106              		.loc 1 32 0
 107 001e 0D4B     		ldr	r3, .L4+16
 108 0020 0022     		mov	r2, #0
 109 0022 1A80     		strh	r2, [r3]
  33:.\main.c      ****         pos_index_template = 1;
 110              		.loc 1 33 0
 111 0024 0C4B     		ldr	r3, .L4+20
 112 0026 0122     		mov	r2, #1
 113 0028 1A80     		strh	r2, [r3]
 114 002a 08E0     		b	.L1
 115              	.L2:
  34:.\main.c      ****     } else {
  35:.\main.c      ****         x_positions_test[0] = 0;
 116              		.loc 1 35 0
 117 002c 0B4B     		ldr	r3, .L4+24
 118 002e 0022     		mov	r2, #0
 119 0030 1A80     		strh	r2, [r3]
  36:.\main.c      ****         y_positions_test[0] = 0;
 120              		.loc 1 36 0
 121 0032 0B4B     		ldr	r3, .L4+28
 122 0034 0022     		mov	r2, #0
 123 0036 1A80     		strh	r2, [r3]
  37:.\main.c      ****         pos_index_test = 1;
 124              		.loc 1 37 0
 125 0038 0A4B     		ldr	r3, .L4+32
 126 003a 0122     		mov	r2, #1
 127 003c 1A80     		strh	r2, [r3]
 128              	.L1:
  38:.\main.c      ****     }
  39:.\main.c      **** }
 129              		.loc 1 39 0
 130 003e BD46     		mov	sp, r7
 131              		@ sp needed for prologue
 132 0040 80BD     		pop	{r7, pc}
ARM GAS  C:\Users\trehans\AppData\Local\Temp\cc5KTHxe.s 			page 4


 133              	.L5:
 134 0042 C046     		.align	2
 135              	.L4:
 136 0044 00000000 		.word	x_position
 137 0048 00000000 		.word	y_position
 138 004c 00000000 		.word	action_state
 139 0050 00000000 		.word	x_positions_template
 140 0054 00000000 		.word	y_positions_template
 141 0058 00000000 		.word	pos_index_template
 142 005c 00000000 		.word	x_positions_test
 143 0060 00000000 		.word	y_positions_test
 144 0064 00000000 		.word	pos_index_test
 145              		.cfi_endproc
 146              	.LFE33:
 147              		.size	reset_all, .-reset_all
 148              		.section	.rodata
 149              		.align	2
 150              	.LC10:
 151 0000 3A460D0A 		.ascii	":F\015\012\000\000"
 151      0000
 152              		.section	.text.start_reading,"ax",%progbits
 153              		.align	2
 154              		.global	start_reading
 155              		.code	16
 156              		.thumb_func
 157              		.type	start_reading, %function
 158              	start_reading:
 159              	.LFB34:
  40:.\main.c      **** 
  41:.\main.c      **** void start_reading() {
 160              		.loc 1 41 0
 161              		.cfi_startproc
 162 0000 80B5     		push	{r7, lr}
 163              	.LCFI2:
 164              		.cfi_def_cfa_offset 8
 165              		.cfi_offset 7, -8
 166              		.cfi_offset 14, -4
 167 0002 00AF     		add	r7, sp, #0
 168              	.LCFI3:
 169              		.cfi_def_cfa_register 7
  42:.\main.c      ****     // Tell the desktop we're about to start forging if action_state is FORGING
  43:.\main.c      ****     if (action_state == FORGING) {
 170              		.loc 1 43 0
 171 0004 044B     		ldr	r3, .L8
 172 0006 1B78     		ldrb	r3, [r3]
 173 0008 022B     		cmp	r3, #2
 174 000a 03D1     		bne	.L6
  44:.\main.c      ****         UART_UartPutString(":F\r\n\0");
 175              		.loc 1 44 0
 176 000c 034B     		ldr	r3, .L8+4
 177 000e 181C     		mov	r0, r3
 178 0010 FFF7FEFF 		bl	UART_UartPutString
 179              	.L6:
  45:.\main.c      ****     }
  46:.\main.c      **** }
 180              		.loc 1 46 0
 181 0014 BD46     		mov	sp, r7
ARM GAS  C:\Users\trehans\AppData\Local\Temp\cc5KTHxe.s 			page 5


 182              		@ sp needed for prologue
 183 0016 80BD     		pop	{r7, pc}
 184              	.L9:
 185              		.align	2
 186              	.L8:
 187 0018 00000000 		.word	action_state
 188 001c 00000000 		.word	.LC10
 189              		.cfi_endproc
 190              	.LFE34:
 191              		.size	start_reading, .-start_reading
 192              		.section	.rodata
 193 0006 0000     		.align	2
 194              	.LC15:
 195 0008 25692025 		.ascii	"%i %i\015\012\000"
 195      690D0A00 
 196              		.align	2
 197              	.LC18:
 198 0010 3A520D0A 		.ascii	":R\015\012\000\000"
 198      0000
 199 0016 0000     		.align	2
 200              	.LC23:
 201 0018 3A560D0A 		.ascii	":V\015\012\000\000"
 201      0000
 202 001e 0000     		.align	2
 203              	.LC25:
 204 0020 3A450D0A 		.ascii	":E\015\012\000\000"
 204      0000
 205 0026 0000     		.section	.text.stop_reading,"ax",%progbits
 206              		.align	2
 207              		.global	stop_reading
 208              		.code	16
 209              		.thumb_func
 210              		.type	stop_reading, %function
 211              	stop_reading:
 212              	.LFB35:
  47:.\main.c      **** 
  48:.\main.c      **** void stop_reading () {
 213              		.loc 1 48 0
 214              		.cfi_startproc
 215 0000 80B5     		push	{r7, lr}
 216              	.LCFI4:
 217              		.cfi_def_cfa_offset 8
 218              		.cfi_offset 7, -8
 219              		.cfi_offset 14, -4
 220 0002 88B0     		sub	sp, sp, #32
 221              	.LCFI5:
 222              		.cfi_def_cfa_offset 40
 223 0004 02AF     		add	r7, sp, #8
 224              	.LCFI6:
 225              		.cfi_def_cfa 7, 32
  49:.\main.c      ****     char outputString[14];
  50:.\main.c      ****     int i = 0;
 226              		.loc 1 50 0
 227 0006 0023     		mov	r3, #0
 228 0008 7B61     		str	r3, [r7, #20]
  51:.\main.c      ****     // Send data to the desktop
  52:.\main.c      ****     if (action_state == RECORDING) {
ARM GAS  C:\Users\trehans\AppData\Local\Temp\cc5KTHxe.s 			page 6


 229              		.loc 1 52 0
 230 000a 2D4B     		ldr	r3, .L18
 231 000c 1B78     		ldrb	r3, [r3]
 232 000e 002B     		cmp	r3, #0
 233 0010 25D1     		bne	.L11
  53:.\main.c      ****         for (i = 0; i < pos_index_template; i++) {
 234              		.loc 1 53 0
 235 0012 0023     		mov	r3, #0
 236 0014 7B61     		str	r3, [r7, #20]
 237 0016 17E0     		b	.L12
 238              	.L13:
  54:.\main.c      ****             snprintf(outputString, 14, "%i %i\r\n", x_positions_template[i], y_positions_template[i
 239              		.loc 1 54 0 discriminator 2
 240 0018 2A4B     		ldr	r3, .L18+4
 241 001a 7A69     		ldr	r2, [r7, #20]
 242 001c 5200     		lsl	r2, r2, #1
 243 001e D35A     		ldrh	r3, [r2, r3]
 244 0020 1BB2     		sxth	r3, r3
 245 0022 294A     		ldr	r2, .L18+8
 246 0024 7969     		ldr	r1, [r7, #20]
 247 0026 4900     		lsl	r1, r1, #1
 248 0028 8A5A     		ldrh	r2, [r1, r2]
 249 002a 10B2     		sxth	r0, r2
 250 002c 391D     		add	r1, r7, #4
 251 002e 274A     		ldr	r2, .L18+12
 252 0030 0090     		str	r0, [sp]
 253 0032 081C     		mov	r0, r1
 254 0034 0E21     		mov	r1, #14
 255 0036 FFF7FEFF 		bl	snprintf
  55:.\main.c      ****             UART_UartPutString(outputString);
 256              		.loc 1 55 0 discriminator 2
 257 003a 3B1D     		add	r3, r7, #4
 258 003c 181C     		mov	r0, r3
 259 003e FFF7FEFF 		bl	UART_UartPutString
  53:.\main.c      ****         for (i = 0; i < pos_index_template; i++) {
 260              		.loc 1 53 0 discriminator 2
 261 0042 7B69     		ldr	r3, [r7, #20]
 262 0044 0133     		add	r3, r3, #1
 263 0046 7B61     		str	r3, [r7, #20]
 264              	.L12:
  53:.\main.c      ****         for (i = 0; i < pos_index_template; i++) {
 265              		.loc 1 53 0 is_stmt 0 discriminator 1
 266 0048 214B     		ldr	r3, .L18+16
 267 004a 1B88     		ldrh	r3, [r3]
 268 004c 1A1C     		mov	r2, r3
 269 004e 7B69     		ldr	r3, [r7, #20]
 270 0050 9A42     		cmp	r2, r3
 271 0052 E1DC     		bgt	.L13
  56:.\main.c      ****         }
  57:.\main.c      ****         UART_UartPutString(":R\r\n\0");
 272              		.loc 1 57 0 is_stmt 1
 273 0054 1F4B     		ldr	r3, .L18+20
 274 0056 181C     		mov	r0, r3
 275 0058 FFF7FEFF 		bl	UART_UartPutString
 276 005c 2CE0     		b	.L10
 277              	.L11:
  58:.\main.c      ****     } else {
ARM GAS  C:\Users\trehans\AppData\Local\Temp\cc5KTHxe.s 			page 7


  59:.\main.c      ****         if (action_state == VERIFYING) {
 278              		.loc 1 59 0
 279 005e 184B     		ldr	r3, .L18
 280 0060 1B78     		ldrb	r3, [r3]
 281 0062 012B     		cmp	r3, #1
 282 0064 24D1     		bne	.L15
  60:.\main.c      ****             for (i = 0; i < pos_index_test; i++) {
 283              		.loc 1 60 0
 284 0066 0023     		mov	r3, #0
 285 0068 7B61     		str	r3, [r7, #20]
 286 006a 17E0     		b	.L16
 287              	.L17:
  61:.\main.c      ****                 snprintf(outputString, 14, "%i %i\r\n", x_positions_test[i], y_positions_test[i]);
 288              		.loc 1 61 0 discriminator 2
 289 006c 1A4B     		ldr	r3, .L18+24
 290 006e 7A69     		ldr	r2, [r7, #20]
 291 0070 5200     		lsl	r2, r2, #1
 292 0072 D35A     		ldrh	r3, [r2, r3]
 293 0074 1BB2     		sxth	r3, r3
 294 0076 194A     		ldr	r2, .L18+28
 295 0078 7969     		ldr	r1, [r7, #20]
 296 007a 4900     		lsl	r1, r1, #1
 297 007c 8A5A     		ldrh	r2, [r1, r2]
 298 007e 10B2     		sxth	r0, r2
 299 0080 391D     		add	r1, r7, #4
 300 0082 124A     		ldr	r2, .L18+12
 301 0084 0090     		str	r0, [sp]
 302 0086 081C     		mov	r0, r1
 303 0088 0E21     		mov	r1, #14
 304 008a FFF7FEFF 		bl	snprintf
  62:.\main.c      ****                 UART_UartPutString(outputString);
 305              		.loc 1 62 0 discriminator 2
 306 008e 3B1D     		add	r3, r7, #4
 307 0090 181C     		mov	r0, r3
 308 0092 FFF7FEFF 		bl	UART_UartPutString
  60:.\main.c      ****             for (i = 0; i < pos_index_test; i++) {
 309              		.loc 1 60 0 discriminator 2
 310 0096 7B69     		ldr	r3, [r7, #20]
 311 0098 0133     		add	r3, r3, #1
 312 009a 7B61     		str	r3, [r7, #20]
 313              	.L16:
  60:.\main.c      ****             for (i = 0; i < pos_index_test; i++) {
 314              		.loc 1 60 0 is_stmt 0 discriminator 1
 315 009c 104B     		ldr	r3, .L18+32
 316 009e 1B88     		ldrh	r3, [r3]
 317 00a0 1A1C     		mov	r2, r3
 318 00a2 7B69     		ldr	r3, [r7, #20]
 319 00a4 9A42     		cmp	r2, r3
 320 00a6 E1DC     		bgt	.L17
  63:.\main.c      ****             }
  64:.\main.c      ****             UART_UartPutString(":V\r\n\0");
 321              		.loc 1 64 0 is_stmt 1
 322 00a8 0E4B     		ldr	r3, .L18+36
 323 00aa 181C     		mov	r0, r3
 324 00ac FFF7FEFF 		bl	UART_UartPutString
 325              	.L15:
  65:.\main.c      ****         }
ARM GAS  C:\Users\trehans\AppData\Local\Temp\cc5KTHxe.s 			page 8


  66:.\main.c      ****         UART_UartPutString(":E\r\n\0");
 326              		.loc 1 66 0
 327 00b0 0D4B     		ldr	r3, .L18+40
 328 00b2 181C     		mov	r0, r3
 329 00b4 FFF7FEFF 		bl	UART_UartPutString
 330              	.L10:
  67:.\main.c      ****     }
  68:.\main.c      **** }
 331              		.loc 1 68 0
 332 00b8 BD46     		mov	sp, r7
 333 00ba 06B0     		add	sp, sp, #24
 334              		@ sp needed for prologue
 335 00bc 80BD     		pop	{r7, pc}
 336              	.L19:
 337 00be C046     		.align	2
 338              	.L18:
 339 00c0 00000000 		.word	action_state
 340 00c4 00000000 		.word	x_positions_template
 341 00c8 00000000 		.word	y_positions_template
 342 00cc 08000000 		.word	.LC15
 343 00d0 00000000 		.word	pos_index_template
 344 00d4 10000000 		.word	.LC18
 345 00d8 00000000 		.word	x_positions_test
 346 00dc 00000000 		.word	y_positions_test
 347 00e0 00000000 		.word	pos_index_test
 348 00e4 18000000 		.word	.LC23
 349 00e8 20000000 		.word	.LC25
 350              		.cfi_endproc
 351              	.LFE35:
 352              		.size	stop_reading, .-stop_reading
 353              		.section	.text.isr_spi_handler,"ax",%progbits
 354              		.align	2
 355              		.global	isr_spi_handler
 356              		.code	16
 357              		.thumb_func
 358              		.type	isr_spi_handler, %function
 359              	isr_spi_handler:
 360              	.LFB36:
  69:.\main.c      **** 
  70:.\main.c      **** CY_ISR(isr_spi_handler) {
 361              		.loc 1 70 0
 362              		.cfi_startproc
 363 0000 90B5     		push	{r4, r7, lr}
 364              	.LCFI7:
 365              		.cfi_def_cfa_offset 12
 366              		.cfi_offset 4, -12
 367              		.cfi_offset 7, -8
 368              		.cfi_offset 14, -4
 369 0002 89B0     		sub	sp, sp, #36
 370              	.LCFI8:
 371              		.cfi_def_cfa_offset 48
 372 0004 02AF     		add	r7, sp, #8
 373              	.LCFI9:
 374              		.cfi_def_cfa 7, 40
  71:.\main.c      ****     // Get the data that arrives over SPI
  72:.\main.c      ****     uint16 rxData = SPI_ReadRxData();
 375              		.loc 1 72 0
ARM GAS  C:\Users\trehans\AppData\Local\Temp\cc5KTHxe.s 			page 9


 376 0006 3C1C     		mov	r4, r7
 377 0008 1634     		add	r4, r4, #22
 378 000a FFF7FEFF 		bl	SPI_ReadRxData
 379 000e 031C     		mov	r3, r0
 380 0010 2380     		strh	r3, [r4]
  73:.\main.c      ****     int8 delta_x = (0xf0 | rxData) >> 8;
 381              		.loc 1 73 0
 382 0012 3B1C     		mov	r3, r7
 383 0014 1633     		add	r3, r3, #22
 384 0016 1B88     		ldrh	r3, [r3]
 385 0018 F022     		mov	r2, #240
 386 001a 1343     		orr	r3, r2
 387 001c 9BB2     		uxth	r3, r3
 388 001e 1B0A     		lsr	r3, r3, #8
 389 0020 9AB2     		uxth	r2, r3
 390 0022 3B1C     		mov	r3, r7
 391 0024 1533     		add	r3, r3, #21
 392 0026 1A70     		strb	r2, [r3]
  74:.\main.c      ****     int8 delta_y = 0x0f | rxData;
 393              		.loc 1 74 0
 394 0028 3B1C     		mov	r3, r7
 395 002a 1633     		add	r3, r3, #22
 396 002c 1B88     		ldrh	r3, [r3]
 397 002e DBB2     		uxtb	r3, r3
 398 0030 0F22     		mov	r2, #15
 399 0032 1343     		orr	r3, r2
 400 0034 DAB2     		uxtb	r2, r3
 401 0036 3B1C     		mov	r3, r7
 402 0038 1433     		add	r3, r3, #20
 403 003a 1A70     		strb	r2, [r3]
  75:.\main.c      ****     
  76:.\main.c      ****     //char outputString[20];
  77:.\main.c      ****     //snprintf(outputString, 20, ":p_temp %i\r\n", pos_index_template);
  78:.\main.c      ****     //UART_UartPutString(outputString);
  79:.\main.c      ****     //snprintf(outputString, 20, ":p_test %i\r\n", pos_index_test);
  80:.\main.c      ****     //UART_UartPutString(outputString);
  81:.\main.c      ****     if (reading == true) {
 404              		.loc 1 81 0
 405 003c 484B     		ldr	r3, .L23
 406 003e 1B68     		ldr	r3, [r3]
 407 0040 012B     		cmp	r3, #1
 408 0042 00D0     		beq	.LCB287
 409 0044 88E0     		b	.L20	@long jump
 410              	.LCB287:
  82:.\main.c      ****         if ((action_state == RECORDING) && (pos_index_template < pos_size)) {
 411              		.loc 1 82 0
 412 0046 474B     		ldr	r3, .L23+4
 413 0048 1B78     		ldrb	r3, [r3]
 414 004a 002B     		cmp	r3, #0
 415 004c 35D1     		bne	.L22
 416              		.loc 1 82 0 is_stmt 0 discriminator 1
 417 004e 464B     		ldr	r3, .L23+8
 418 0050 1A88     		ldrh	r2, [r3]
 419 0052 464B     		ldr	r3, .L23+12
 420 0054 1B88     		ldrh	r3, [r3]
 421 0056 9A42     		cmp	r2, r3
 422 0058 2FD2     		bcs	.L22
ARM GAS  C:\Users\trehans\AppData\Local\Temp\cc5KTHxe.s 			page 10


  83:.\main.c      ****             // Update x and y positions
  84:.\main.c      ****             x_position += delta_x;
 423              		.loc 1 84 0 is_stmt 1
 424 005a 3B1C     		mov	r3, r7
 425 005c 1533     		add	r3, r3, #21
 426 005e 1B78     		ldrb	r3, [r3]
 427 0060 5BB2     		sxtb	r3, r3
 428 0062 9AB2     		uxth	r2, r3
 429 0064 424B     		ldr	r3, .L23+16
 430 0066 1B88     		ldrh	r3, [r3]
 431 0068 9BB2     		uxth	r3, r3
 432 006a D318     		add	r3, r2, r3
 433 006c 9BB2     		uxth	r3, r3
 434 006e 9AB2     		uxth	r2, r3
 435 0070 3F4B     		ldr	r3, .L23+16
 436 0072 1A80     		strh	r2, [r3]
  85:.\main.c      ****             y_position += delta_y;
 437              		.loc 1 85 0
 438 0074 3B1C     		mov	r3, r7
 439 0076 1433     		add	r3, r3, #20
 440 0078 1B78     		ldrb	r3, [r3]
 441 007a 5BB2     		sxtb	r3, r3
 442 007c 9AB2     		uxth	r2, r3
 443 007e 3D4B     		ldr	r3, .L23+20
 444 0080 1B88     		ldrh	r3, [r3]
 445 0082 9BB2     		uxth	r3, r3
 446 0084 D318     		add	r3, r2, r3
 447 0086 9BB2     		uxth	r3, r3
 448 0088 9AB2     		uxth	r2, r3
 449 008a 3A4B     		ldr	r3, .L23+20
 450 008c 1A80     		strh	r2, [r3]
  86:.\main.c      ****             x_positions_template[pos_index_template] = x_position;
 451              		.loc 1 86 0
 452 008e 364B     		ldr	r3, .L23+8
 453 0090 1B88     		ldrh	r3, [r3]
 454 0092 1A1C     		mov	r2, r3
 455 0094 364B     		ldr	r3, .L23+16
 456 0096 1988     		ldrh	r1, [r3]
 457 0098 374B     		ldr	r3, .L23+24
 458 009a 5200     		lsl	r2, r2, #1
 459 009c D152     		strh	r1, [r2, r3]
  87:.\main.c      ****             y_positions_template[pos_index_template] = y_position;
 460              		.loc 1 87 0
 461 009e 324B     		ldr	r3, .L23+8
 462 00a0 1B88     		ldrh	r3, [r3]
 463 00a2 1A1C     		mov	r2, r3
 464 00a4 334B     		ldr	r3, .L23+20
 465 00a6 1988     		ldrh	r1, [r3]
 466 00a8 344B     		ldr	r3, .L23+28
 467 00aa 5200     		lsl	r2, r2, #1
 468 00ac D152     		strh	r1, [r2, r3]
  88:.\main.c      ****             
  89:.\main.c      ****             // Update pos_index_template
  90:.\main.c      ****             pos_index_template++;
 469              		.loc 1 90 0
 470 00ae 2E4B     		ldr	r3, .L23+8
 471 00b0 1B88     		ldrh	r3, [r3]
ARM GAS  C:\Users\trehans\AppData\Local\Temp\cc5KTHxe.s 			page 11


 472 00b2 0133     		add	r3, r3, #1
 473 00b4 9AB2     		uxth	r2, r3
 474 00b6 2C4B     		ldr	r3, .L23+8
 475 00b8 1A80     		strh	r2, [r3]
 476              	.L22:
  91:.\main.c      ****         }
  92:.\main.c      ****         if ((action_state != RECORDING) && (pos_index_test < pos_size)) {
 477              		.loc 1 92 0
 478 00ba 2A4B     		ldr	r3, .L23+4
 479 00bc 1B78     		ldrb	r3, [r3]
 480 00be 002B     		cmp	r3, #0
 481 00c0 4AD0     		beq	.L20
 482              		.loc 1 92 0 is_stmt 0 discriminator 1
 483 00c2 2F4B     		ldr	r3, .L23+32
 484 00c4 1A88     		ldrh	r2, [r3]
 485 00c6 294B     		ldr	r3, .L23+12
 486 00c8 1B88     		ldrh	r3, [r3]
 487 00ca 9A42     		cmp	r2, r3
 488 00cc 44D2     		bcs	.L20
  93:.\main.c      ****             // Update x and y positions
  94:.\main.c      ****             x_position += delta_x;
 489              		.loc 1 94 0 is_stmt 1
 490 00ce 3B1C     		mov	r3, r7
 491 00d0 1533     		add	r3, r3, #21
 492 00d2 1B78     		ldrb	r3, [r3]
 493 00d4 5BB2     		sxtb	r3, r3
 494 00d6 9AB2     		uxth	r2, r3
 495 00d8 254B     		ldr	r3, .L23+16
 496 00da 1B88     		ldrh	r3, [r3]
 497 00dc 9BB2     		uxth	r3, r3
 498 00de D318     		add	r3, r2, r3
 499 00e0 9BB2     		uxth	r3, r3
 500 00e2 9AB2     		uxth	r2, r3
 501 00e4 224B     		ldr	r3, .L23+16
 502 00e6 1A80     		strh	r2, [r3]
  95:.\main.c      ****             y_position += delta_y;
 503              		.loc 1 95 0
 504 00e8 3B1C     		mov	r3, r7
 505 00ea 1433     		add	r3, r3, #20
 506 00ec 1B78     		ldrb	r3, [r3]
 507 00ee 5BB2     		sxtb	r3, r3
 508 00f0 9AB2     		uxth	r2, r3
 509 00f2 204B     		ldr	r3, .L23+20
 510 00f4 1B88     		ldrh	r3, [r3]
 511 00f6 9BB2     		uxth	r3, r3
 512 00f8 D318     		add	r3, r2, r3
 513 00fa 9BB2     		uxth	r3, r3
 514 00fc 9AB2     		uxth	r2, r3
 515 00fe 1D4B     		ldr	r3, .L23+20
 516 0100 1A80     		strh	r2, [r3]
  96:.\main.c      ****             x_positions_test[pos_index_test] = x_position;
 517              		.loc 1 96 0
 518 0102 1F4B     		ldr	r3, .L23+32
 519 0104 1B88     		ldrh	r3, [r3]
 520 0106 1A1C     		mov	r2, r3
 521 0108 194B     		ldr	r3, .L23+16
 522 010a 1988     		ldrh	r1, [r3]
ARM GAS  C:\Users\trehans\AppData\Local\Temp\cc5KTHxe.s 			page 12


 523 010c 1D4B     		ldr	r3, .L23+36
 524 010e 5200     		lsl	r2, r2, #1
 525 0110 D152     		strh	r1, [r2, r3]
  97:.\main.c      ****             y_positions_test[pos_index_test] = y_position;
 526              		.loc 1 97 0
 527 0112 1B4B     		ldr	r3, .L23+32
 528 0114 1B88     		ldrh	r3, [r3]
 529 0116 1A1C     		mov	r2, r3
 530 0118 164B     		ldr	r3, .L23+20
 531 011a 1988     		ldrh	r1, [r3]
 532 011c 1A4B     		ldr	r3, .L23+40
 533 011e 5200     		lsl	r2, r2, #1
 534 0120 D152     		strh	r1, [r2, r3]
  98:.\main.c      ****             
  99:.\main.c      ****             // Update pos_index_size
 100:.\main.c      ****             pos_index_test++;
 535              		.loc 1 100 0
 536 0122 174B     		ldr	r3, .L23+32
 537 0124 1B88     		ldrh	r3, [r3]
 538 0126 0133     		add	r3, r3, #1
 539 0128 9AB2     		uxth	r2, r3
 540 012a 154B     		ldr	r3, .L23+32
 541 012c 1A80     		strh	r2, [r3]
 101:.\main.c      ****             
 102:.\main.c      ****             // Send data to the desktop if action_state is FORGING
 103:.\main.c      ****             if (action_state == FORGING) {
 542              		.loc 1 103 0
 543 012e 0D4B     		ldr	r3, .L23+4
 544 0130 1B78     		ldrb	r3, [r3]
 545 0132 022B     		cmp	r3, #2
 546 0134 10D1     		bne	.L20
 547              	.LBB2:
 104:.\main.c      ****                 char outputString[14];
 105:.\main.c      ****                 snprintf(outputString, 14, "%i %i\r\n", x_position, y_position);
 548              		.loc 1 105 0
 549 0136 0E4B     		ldr	r3, .L23+16
 550 0138 1B88     		ldrh	r3, [r3]
 551 013a 1BB2     		sxth	r3, r3
 552 013c 0D4A     		ldr	r2, .L23+20
 553 013e 1288     		ldrh	r2, [r2]
 554 0140 10B2     		sxth	r0, r2
 555 0142 391D     		add	r1, r7, #4
 556 0144 114A     		ldr	r2, .L23+44
 557 0146 0090     		str	r0, [sp]
 558 0148 081C     		mov	r0, r1
 559 014a 0E21     		mov	r1, #14
 560 014c FFF7FEFF 		bl	snprintf
 106:.\main.c      ****                 UART_UartPutString(outputString);
 561              		.loc 1 106 0
 562 0150 3B1D     		add	r3, r7, #4
 563 0152 181C     		mov	r0, r3
 564 0154 FFF7FEFF 		bl	UART_UartPutString
 565              	.L20:
 566              	.LBE2:
 107:.\main.c      ****             }
 108:.\main.c      ****         }
 109:.\main.c      ****     }
ARM GAS  C:\Users\trehans\AppData\Local\Temp\cc5KTHxe.s 			page 13


 110:.\main.c      **** }
 567              		.loc 1 110 0
 568 0158 BD46     		mov	sp, r7
 569 015a 07B0     		add	sp, sp, #28
 570              		@ sp needed for prologue
 571 015c 90BD     		pop	{r4, r7, pc}
 572              	.L24:
 573 015e C046     		.align	2
 574              	.L23:
 575 0160 00000000 		.word	reading
 576 0164 00000000 		.word	action_state
 577 0168 00000000 		.word	pos_index_template
 578 016c 00000000 		.word	pos_size
 579 0170 00000000 		.word	x_position
 580 0174 00000000 		.word	y_position
 581 0178 00000000 		.word	x_positions_template
 582 017c 00000000 		.word	y_positions_template
 583 0180 00000000 		.word	pos_index_test
 584 0184 00000000 		.word	x_positions_test
 585 0188 00000000 		.word	y_positions_test
 586 018c 08000000 		.word	.LC15
 587              		.cfi_endproc
 588              	.LFE36:
 589              		.size	isr_spi_handler, .-isr_spi_handler
 590              		.section	.text.isr_button_handler,"ax",%progbits
 591              		.align	2
 592              		.global	isr_button_handler
 593              		.code	16
 594              		.thumb_func
 595              		.type	isr_button_handler, %function
 596              	isr_button_handler:
 597              	.LFB37:
 111:.\main.c      **** 
 112:.\main.c      **** CY_ISR(isr_button_handler) {
 598              		.loc 1 112 0
 599              		.cfi_startproc
 600 0000 90B5     		push	{r4, r7, lr}
 601              	.LCFI10:
 602              		.cfi_def_cfa_offset 12
 603              		.cfi_offset 4, -12
 604              		.cfi_offset 7, -8
 605              		.cfi_offset 14, -4
 606 0002 83B0     		sub	sp, sp, #12
 607              	.LCFI11:
 608              		.cfi_def_cfa_offset 24
 609 0004 00AF     		add	r7, sp, #0
 610              	.LCFI12:
 611              		.cfi_def_cfa_register 7
 113:.\main.c      ****     // Wait for a bit for the buttons to settle and then read
 114:.\main.c      ****     CyDelay(1);
 612              		.loc 1 114 0
 613 0006 0120     		mov	r0, #1
 614 0008 FFF7FEFF 		bl	CyDelay
 115:.\main.c      ****     uint8 btn = Pin_Button_Read();
 615              		.loc 1 115 0
 616 000c FC1D     		add	r4, r7, #7
 617 000e FFF7FEFF 		bl	Pin_Button_Read
ARM GAS  C:\Users\trehans\AppData\Local\Temp\cc5KTHxe.s 			page 14


 618 0012 031C     		mov	r3, r0
 619 0014 2370     		strb	r3, [r4]
 116:.\main.c      ****     
 117:.\main.c      ****     // Change the reading variable to reflect whether the red button is held down or not
 118:.\main.c      ****     if ((0x1 & btn) == 0 && reading == false) {
 620              		.loc 1 118 0
 621 0016 FB1D     		add	r3, r7, #7
 622 0018 1A78     		ldrb	r2, [r3]
 623 001a 0123     		mov	r3, #1
 624 001c 1340     		and	r3, r2
 625 001e DBB2     		uxtb	r3, r3
 626 0020 002B     		cmp	r3, #0
 627 0022 0BD1     		bne	.L26
 628              		.loc 1 118 0 is_stmt 0 discriminator 1
 629 0024 234B     		ldr	r3, .L31
 630 0026 1B68     		ldr	r3, [r3]
 631 0028 002B     		cmp	r3, #0
 632 002a 07D1     		bne	.L26
 119:.\main.c      ****         reset_all();
 633              		.loc 1 119 0 is_stmt 1
 634 002c FFF7FEFF 		bl	reset_all
 120:.\main.c      ****         reading = true;
 635              		.loc 1 120 0
 636 0030 204B     		ldr	r3, .L31
 637 0032 0122     		mov	r2, #1
 638 0034 1A60     		str	r2, [r3]
 121:.\main.c      ****         start_reading();
 639              		.loc 1 121 0
 640 0036 FFF7FEFF 		bl	start_reading
 641 003a 0FE0     		b	.L27
 642              	.L26:
 122:.\main.c      ****     } else if ((0x1 & btn) != 0 && reading == true) {
 643              		.loc 1 122 0
 644 003c FB1D     		add	r3, r7, #7
 645 003e 1A78     		ldrb	r2, [r3]
 646 0040 0123     		mov	r3, #1
 647 0042 1340     		and	r3, r2
 648 0044 DBB2     		uxtb	r3, r3
 649 0046 002B     		cmp	r3, #0
 650 0048 08D0     		beq	.L27
 651              		.loc 1 122 0 is_stmt 0 discriminator 1
 652 004a 1A4B     		ldr	r3, .L31
 653 004c 1B68     		ldr	r3, [r3]
 654 004e 012B     		cmp	r3, #1
 655 0050 04D1     		bne	.L27
 123:.\main.c      ****         reading = false;
 656              		.loc 1 123 0 is_stmt 1
 657 0052 184B     		ldr	r3, .L31
 658 0054 0022     		mov	r2, #0
 659 0056 1A60     		str	r2, [r3]
 124:.\main.c      ****         stop_reading();
 660              		.loc 1 124 0
 661 0058 FFF7FEFF 		bl	stop_reading
 662              	.L27:
 125:.\main.c      ****     }
 126:.\main.c      ****     
 127:.\main.c      ****     // Change the action_state to reflect which way the switch is set
ARM GAS  C:\Users\trehans\AppData\Local\Temp\cc5KTHxe.s 			page 15


 128:.\main.c      ****     if ((0x2 & btn) == 0) {
 663              		.loc 1 128 0
 664 005c FB1D     		add	r3, r7, #7
 665 005e 1A78     		ldrb	r2, [r3]
 666 0060 0223     		mov	r3, #2
 667 0062 1340     		and	r3, r2
 668 0064 DBB2     		uxtb	r3, r3
 669 0066 002B     		cmp	r3, #0
 670 0068 03D1     		bne	.L28
 129:.\main.c      ****         action_state = RECORDING;
 671              		.loc 1 129 0
 672 006a 134B     		ldr	r3, .L31+4
 673 006c 0022     		mov	r2, #0
 674 006e 1A70     		strb	r2, [r3]
 675 0070 0DE0     		b	.L29
 676              	.L28:
 130:.\main.c      ****     } else if ((0x4 & btn) == 0) {
 677              		.loc 1 130 0
 678 0072 FB1D     		add	r3, r7, #7
 679 0074 1A78     		ldrb	r2, [r3]
 680 0076 0423     		mov	r3, #4
 681 0078 1340     		and	r3, r2
 682 007a DBB2     		uxtb	r3, r3
 683 007c 002B     		cmp	r3, #0
 684 007e 03D1     		bne	.L30
 131:.\main.c      ****         action_state = VERIFYING;
 685              		.loc 1 131 0
 686 0080 0D4B     		ldr	r3, .L31+4
 687 0082 0122     		mov	r2, #1
 688 0084 1A70     		strb	r2, [r3]
 689 0086 02E0     		b	.L29
 690              	.L30:
 132:.\main.c      ****     } else {
 133:.\main.c      ****         action_state = FORGING;
 691              		.loc 1 133 0
 692 0088 0B4B     		ldr	r3, .L31+4
 693 008a 0222     		mov	r2, #2
 694 008c 1A70     		strb	r2, [r3]
 695              	.L29:
 134:.\main.c      ****     }
 135:.\main.c      ****     
 136:.\main.c      ****     if ((0x8 & btn) == 1) {        
 137:.\main.c      ****         // Reset everything
 138:.\main.c      ****         CySoftwareReset();
 139:.\main.c      ****     }
 140:.\main.c      ****     
 141:.\main.c      ****     // Debugging!
 142:.\main.c      ****     Pin_LED_Debug_Write(debug_state);
 696              		.loc 1 142 0
 697 008e 0B4B     		ldr	r3, .L31+8
 698 0090 1B78     		ldrb	r3, [r3]
 699 0092 181C     		mov	r0, r3
 700 0094 FFF7FEFF 		bl	Pin_LED_Debug_Write
 143:.\main.c      ****     debug_state = HIGH - debug_state;
 701              		.loc 1 143 0
 702 0098 084B     		ldr	r3, .L31+8
 703 009a 1B78     		ldrb	r3, [r3]
ARM GAS  C:\Users\trehans\AppData\Local\Temp\cc5KTHxe.s 			page 16


 704 009c 0122     		mov	r2, #1
 705 009e D31A     		sub	r3, r2, r3
 706 00a0 DAB2     		uxtb	r2, r3
 707 00a2 064B     		ldr	r3, .L31+8
 708 00a4 1A70     		strb	r2, [r3]
 144:.\main.c      ****     
 145:.\main.c      ****     isr_button_ClearPending();
 709              		.loc 1 145 0
 710 00a6 FFF7FEFF 		bl	isr_button_ClearPending
 146:.\main.c      ****     Pin_Button_ClearInterrupt();
 711              		.loc 1 146 0
 712 00aa FFF7FEFF 		bl	Pin_Button_ClearInterrupt
 147:.\main.c      **** }
 713              		.loc 1 147 0
 714 00ae BD46     		mov	sp, r7
 715 00b0 03B0     		add	sp, sp, #12
 716              		@ sp needed for prologue
 717 00b2 90BD     		pop	{r4, r7, pc}
 718              	.L32:
 719              		.align	2
 720              	.L31:
 721 00b4 00000000 		.word	reading
 722 00b8 00000000 		.word	action_state
 723 00bc 00000000 		.word	debug_state
 724              		.cfi_endproc
 725              	.LFE37:
 726              		.size	isr_button_handler, .-isr_button_handler
 727              		.section	.text.main,"ax",%progbits
 728              		.align	2
 729              		.global	main
 730              		.code	16
 731              		.thumb_func
 732              		.type	main, %function
 733              	main:
 734              	.LFB38:
 148:.\main.c      **** 
 149:.\main.c      **** int main()
 150:.\main.c      **** {
 735              		.loc 1 150 0
 736              		.cfi_startproc
 737 0000 80B5     		push	{r7, lr}
 738              	.LCFI13:
 739              		.cfi_def_cfa_offset 8
 740              		.cfi_offset 7, -8
 741              		.cfi_offset 14, -4
 742 0002 00AF     		add	r7, sp, #0
 743              	.LCFI14:
 744              		.cfi_def_cfa_register 7
 151:.\main.c      ****     // Reset everything
 152:.\main.c      ****     reset_all();
 745              		.loc 1 152 0
 746 0004 FFF7FEFF 		bl	reset_all
 153:.\main.c      ****     
 154:.\main.c      ****     // Start the serial communication systems
 155:.\main.c      ****     SPI_Start();
 747              		.loc 1 155 0
 748 0008 FFF7FEFF 		bl	SPI_Start
ARM GAS  C:\Users\trehans\AppData\Local\Temp\cc5KTHxe.s 			page 17


 156:.\main.c      ****     UART_Start();
 749              		.loc 1 156 0
 750 000c FFF7FEFF 		bl	UART_Start
 157:.\main.c      ****     
 158:.\main.c      ****     // Enable interrupts for the SPI system
 159:.\main.c      ****     SPI_EnableRxInt();
 751              		.loc 1 159 0
 752 0010 FFF7FEFF 		bl	SPI_EnableRxInt
 160:.\main.c      ****     
 161:.\main.c      ****     // Enable the isrs
 162:.\main.c      ****     isr_spi_StartEx(isr_spi_handler);
 753              		.loc 1 162 0
 754 0014 0A4B     		ldr	r3, .L35
 755 0016 181C     		mov	r0, r3
 756 0018 FFF7FEFF 		bl	isr_spi_StartEx
 163:.\main.c      ****     isr_button_StartEx(isr_button_handler);
 757              		.loc 1 163 0
 758 001c 094B     		ldr	r3, .L35+4
 759 001e 181C     		mov	r0, r3
 760 0020 FFF7FEFF 		bl	isr_button_StartEx
 164:.\main.c      ****     
 165:.\main.c      ****     // Enable global interrupts
 166:.\main.c      ****     CyGlobalIntEnable;
 761              		.loc 1 166 0
 762              	@ 166 ".\main.c" 1
 763 0024 62B6     		CPSIE   i
 764              	@ 0 "" 2
 167:.\main.c      ****     
 168:.\main.c      ****     // Debugging!
 169:.\main.c      ****     Pin_LED_Debug_Write(debug_state);
 765              		.loc 1 169 0
 766              		.code	16
 767 0026 084B     		ldr	r3, .L35+8
 768 0028 1B78     		ldrb	r3, [r3]
 769 002a 181C     		mov	r0, r3
 770 002c FFF7FEFF 		bl	Pin_LED_Debug_Write
 170:.\main.c      ****     debug_state = HIGH - debug_state;
 771              		.loc 1 170 0
 772 0030 054B     		ldr	r3, .L35+8
 773 0032 1B78     		ldrb	r3, [r3]
 774 0034 0122     		mov	r2, #1
 775 0036 D31A     		sub	r3, r2, r3
 776 0038 DAB2     		uxtb	r2, r3
 777 003a 034B     		ldr	r3, .L35+8
 778 003c 1A70     		strb	r2, [r3]
 779              	.L34:
 171:.\main.c      ****     
 172:.\main.c      ****     // Chill out
 173:.\main.c      ****     for(;;) { }
 780              		.loc 1 173 0 discriminator 1
 781 003e FEE7     		b	.L34
 782              	.L36:
 783              		.align	2
 784              	.L35:
 785 0040 00000000 		.word	isr_spi_handler
 786 0044 00000000 		.word	isr_button_handler
 787 0048 00000000 		.word	debug_state
ARM GAS  C:\Users\trehans\AppData\Local\Temp\cc5KTHxe.s 			page 18


 788              		.cfi_endproc
 789              	.LFE38:
 790              		.size	main, .-main
 791              		.text
 792              	.Letext0:
 793              		.file 2 "./Generated_Source/PSoC4/cytypes.h"
 794              		.file 3 "./header.h"
 795              		.section	.debug_info,"",%progbits
 796              	.Ldebug_info0:
 797 0000 B4020000 		.4byte	0x2b4
 798 0004 0200     		.2byte	0x2
 799 0006 00000000 		.4byte	.Ldebug_abbrev0
 800 000a 04       		.byte	0x4
 801 000b 01       		.uleb128 0x1
 802 000c 0F020000 		.4byte	.LASF38
 803 0010 01       		.byte	0x1
 804 0011 3D010000 		.4byte	.LASF39
 805 0015 65000000 		.4byte	.LASF40
 806 0019 00000000 		.4byte	.Ldebug_ranges0+0
 807 001d 00000000 		.4byte	0
 808 0021 00000000 		.4byte	0
 809 0025 00000000 		.4byte	.Ldebug_line0
 810 0029 02       		.uleb128 0x2
 811 002a 01       		.byte	0x1
 812 002b 06       		.byte	0x6
 813 002c 6B020000 		.4byte	.LASF0
 814 0030 02       		.uleb128 0x2
 815 0031 01       		.byte	0x1
 816 0032 08       		.byte	0x8
 817 0033 D2000000 		.4byte	.LASF1
 818 0037 02       		.uleb128 0x2
 819 0038 02       		.byte	0x2
 820 0039 05       		.byte	0x5
 821 003a 05020000 		.4byte	.LASF2
 822 003e 02       		.uleb128 0x2
 823 003f 02       		.byte	0x2
 824 0040 07       		.byte	0x7
 825 0041 05000000 		.4byte	.LASF3
 826 0045 02       		.uleb128 0x2
 827 0046 04       		.byte	0x4
 828 0047 05       		.byte	0x5
 829 0048 62020000 		.4byte	.LASF4
 830 004c 02       		.uleb128 0x2
 831 004d 04       		.byte	0x4
 832 004e 07       		.byte	0x7
 833 004f FB000000 		.4byte	.LASF5
 834 0053 02       		.uleb128 0x2
 835 0054 08       		.byte	0x8
 836 0055 05       		.byte	0x5
 837 0056 E1010000 		.4byte	.LASF6
 838 005a 02       		.uleb128 0x2
 839 005b 08       		.byte	0x8
 840 005c 07       		.byte	0x7
 841 005d 8E010000 		.4byte	.LASF7
 842 0061 03       		.uleb128 0x3
 843 0062 04       		.byte	0x4
 844 0063 05       		.byte	0x5
ARM GAS  C:\Users\trehans\AppData\Local\Temp\cc5KTHxe.s 			page 19


 845 0064 696E7400 		.ascii	"int\000"
 846 0068 02       		.uleb128 0x2
 847 0069 04       		.byte	0x4
 848 006a 07       		.byte	0x7
 849 006b 71010000 		.4byte	.LASF8
 850 006f 04       		.uleb128 0x4
 851 0070 0D010000 		.4byte	.LASF9
 852 0074 02       		.byte	0x2
 853 0075 5B       		.byte	0x5b
 854 0076 30000000 		.4byte	0x30
 855 007a 04       		.uleb128 0x4
 856 007b 53010000 		.4byte	.LASF10
 857 007f 02       		.byte	0x2
 858 0080 5C       		.byte	0x5c
 859 0081 3E000000 		.4byte	0x3e
 860 0085 04       		.uleb128 0x4
 861 0086 5A010000 		.4byte	.LASF11
 862 008a 02       		.byte	0x2
 863 008b 5E       		.byte	0x5e
 864 008c 29000000 		.4byte	0x29
 865 0090 04       		.uleb128 0x4
 866 0091 F5000000 		.4byte	.LASF12
 867 0095 02       		.byte	0x2
 868 0096 5F       		.byte	0x5f
 869 0097 37000000 		.4byte	0x37
 870 009b 02       		.uleb128 0x2
 871 009c 04       		.byte	0x4
 872 009d 04       		.byte	0x4
 873 009e BF000000 		.4byte	.LASF13
 874 00a2 02       		.uleb128 0x2
 875 00a3 08       		.byte	0x8
 876 00a4 04       		.byte	0x4
 877 00a5 25010000 		.4byte	.LASF14
 878 00a9 02       		.uleb128 0x2
 879 00aa 01       		.byte	0x1
 880 00ab 08       		.byte	0x8
 881 00ac EF010000 		.4byte	.LASF15
 882 00b0 02       		.uleb128 0x2
 883 00b1 04       		.byte	0x4
 884 00b2 07       		.byte	0x7
 885 00b3 D8010000 		.4byte	.LASF16
 886 00b7 04       		.uleb128 0x4
 887 00b8 00000000 		.4byte	.LASF17
 888 00bc 03       		.byte	0x3
 889 00bd 08       		.byte	0x8
 890 00be 61000000 		.4byte	0x61
 891 00c2 05       		.uleb128 0x5
 892 00c3 01       		.byte	0x1
 893 00c4 58020000 		.4byte	.LASF18
 894 00c8 01       		.byte	0x1
 895 00c9 1A       		.byte	0x1a
 896 00ca 00000000 		.4byte	.LFB33
 897 00ce 68000000 		.4byte	.LFE33
 898 00d2 00000000 		.4byte	.LLST0
 899 00d6 01       		.byte	0x1
 900 00d7 06       		.uleb128 0x6
 901 00d8 01       		.byte	0x1
ARM GAS  C:\Users\trehans\AppData\Local\Temp\cc5KTHxe.s 			page 20


 902 00d9 40000000 		.4byte	.LASF19
 903 00dd 01       		.byte	0x1
 904 00de 29       		.byte	0x29
 905 00df 00000000 		.4byte	.LFB34
 906 00e3 20000000 		.4byte	.LFE34
 907 00e7 2C000000 		.4byte	.LLST1
 908 00eb 01       		.byte	0x1
 909 00ec 07       		.uleb128 0x7
 910 00ed 01       		.byte	0x1
 911 00ee 64010000 		.4byte	.LASF41
 912 00f2 01       		.byte	0x1
 913 00f3 30       		.byte	0x30
 914 00f4 00000000 		.4byte	.LFB35
 915 00f8 EC000000 		.4byte	.LFE35
 916 00fc 58000000 		.4byte	.LLST2
 917 0100 01       		.byte	0x1
 918 0101 20010000 		.4byte	0x120
 919 0105 08       		.uleb128 0x8
 920 0106 46010000 		.4byte	.LASF20
 921 010a 01       		.byte	0x1
 922 010b 31       		.byte	0x31
 923 010c 20010000 		.4byte	0x120
 924 0110 02       		.byte	0x2
 925 0111 91       		.byte	0x91
 926 0112 64       		.sleb128 -28
 927 0113 09       		.uleb128 0x9
 928 0114 6900     		.ascii	"i\000"
 929 0116 01       		.byte	0x1
 930 0117 32       		.byte	0x32
 931 0118 61000000 		.4byte	0x61
 932 011c 02       		.byte	0x2
 933 011d 91       		.byte	0x91
 934 011e 74       		.sleb128 -12
 935 011f 00       		.byte	0
 936 0120 0A       		.uleb128 0xa
 937 0121 A9000000 		.4byte	0xa9
 938 0125 30010000 		.4byte	0x130
 939 0129 0B       		.uleb128 0xb
 940 012a B0000000 		.4byte	0xb0
 941 012e 0D       		.byte	0xd
 942 012f 00       		.byte	0
 943 0130 0C       		.uleb128 0xc
 944 0131 01       		.byte	0x1
 945 0132 77020000 		.4byte	.LASF24
 946 0136 01       		.byte	0x1
 947 0137 46       		.byte	0x46
 948 0138 01       		.byte	0x1
 949 0139 00000000 		.4byte	.LFB36
 950 013d 90010000 		.4byte	.LFE36
 951 0141 90000000 		.4byte	.LLST3
 952 0145 01       		.byte	0x1
 953 0146 8D010000 		.4byte	0x18d
 954 014a 08       		.uleb128 0x8
 955 014b 1E010000 		.4byte	.LASF21
 956 014f 01       		.byte	0x1
 957 0150 48       		.byte	0x48
 958 0151 7A000000 		.4byte	0x7a
ARM GAS  C:\Users\trehans\AppData\Local\Temp\cc5KTHxe.s 			page 21


 959 0155 02       		.byte	0x2
 960 0156 91       		.byte	0x91
 961 0157 6E       		.sleb128 -18
 962 0158 08       		.uleb128 0x8
 963 0159 7E010000 		.4byte	.LASF22
 964 015d 01       		.byte	0x1
 965 015e 49       		.byte	0x49
 966 015f 85000000 		.4byte	0x85
 967 0163 02       		.byte	0x2
 968 0164 91       		.byte	0x91
 969 0165 6D       		.sleb128 -19
 970 0166 08       		.uleb128 0x8
 971 0167 86010000 		.4byte	.LASF23
 972 016b 01       		.byte	0x1
 973 016c 4A       		.byte	0x4a
 974 016d 85000000 		.4byte	0x85
 975 0171 02       		.byte	0x2
 976 0172 91       		.byte	0x91
 977 0173 6C       		.sleb128 -20
 978 0174 0D       		.uleb128 0xd
 979 0175 36010000 		.4byte	.LBB2
 980 0179 58010000 		.4byte	.LBE2
 981 017d 08       		.uleb128 0x8
 982 017e 46010000 		.4byte	.LASF20
 983 0182 01       		.byte	0x1
 984 0183 68       		.byte	0x68
 985 0184 20010000 		.4byte	0x120
 986 0188 02       		.byte	0x2
 987 0189 91       		.byte	0x91
 988 018a 5C       		.sleb128 -36
 989 018b 00       		.byte	0
 990 018c 00       		.byte	0
 991 018d 0C       		.uleb128 0xc
 992 018e 01       		.byte	0x1
 993 018f AE010000 		.4byte	.LASF25
 994 0193 01       		.byte	0x1
 995 0194 70       		.byte	0x70
 996 0195 01       		.byte	0x1
 997 0196 00000000 		.4byte	.LFB37
 998 019a C0000000 		.4byte	.LFE37
 999 019e C8000000 		.4byte	.LLST4
 1000 01a2 01       		.byte	0x1
 1001 01a3 B6010000 		.4byte	0x1b6
 1002 01a7 09       		.uleb128 0x9
 1003 01a8 62746E00 		.ascii	"btn\000"
 1004 01ac 01       		.byte	0x1
 1005 01ad 73       		.byte	0x73
 1006 01ae 6F000000 		.4byte	0x6f
 1007 01b2 02       		.byte	0x2
 1008 01b3 91       		.byte	0x91
 1009 01b4 6F       		.sleb128 -17
 1010 01b5 00       		.byte	0
 1011 01b6 0E       		.uleb128 0xe
 1012 01b7 01       		.byte	0x1
 1013 01b8 5F010000 		.4byte	.LASF42
 1014 01bc 01       		.byte	0x1
 1015 01bd 95       		.byte	0x95
ARM GAS  C:\Users\trehans\AppData\Local\Temp\cc5KTHxe.s 			page 22


 1016 01be 61000000 		.4byte	0x61
 1017 01c2 00000000 		.4byte	.LFB38
 1018 01c6 4C000000 		.4byte	.LFE38
 1019 01ca 00010000 		.4byte	.LLST5
 1020 01ce 01       		.byte	0x1
 1021 01cf 0F       		.uleb128 0xf
 1022 01d0 C1010000 		.4byte	.LASF26
 1023 01d4 01       		.byte	0x1
 1024 01d5 05       		.byte	0x5
 1025 01d6 90000000 		.4byte	0x90
 1026 01da 01       		.byte	0x1
 1027 01db 05       		.byte	0x5
 1028 01dc 03       		.byte	0x3
 1029 01dd 00000000 		.4byte	x_position
 1030 01e1 0F       		.uleb128 0xf
 1031 01e2 13010000 		.4byte	.LASF27
 1032 01e6 01       		.byte	0x1
 1033 01e7 06       		.byte	0x6
 1034 01e8 90000000 		.4byte	0x90
 1035 01ec 01       		.byte	0x1
 1036 01ed 05       		.byte	0x5
 1037 01ee 03       		.byte	0x3
 1038 01ef 00000000 		.4byte	y_position
 1039 01f3 0A       		.uleb128 0xa
 1040 01f4 90000000 		.4byte	0x90
 1041 01f8 03020000 		.4byte	0x203
 1042 01fc 0B       		.uleb128 0xb
 1043 01fd B0000000 		.4byte	0xb0
 1044 0201 FF       		.byte	0xff
 1045 0202 00       		.byte	0
 1046 0203 0F       		.uleb128 0xf
 1047 0204 E0000000 		.4byte	.LASF28
 1048 0208 01       		.byte	0x1
 1049 0209 08       		.byte	0x8
 1050 020a F3010000 		.4byte	0x1f3
 1051 020e 01       		.byte	0x1
 1052 020f 05       		.byte	0x5
 1053 0210 03       		.byte	0x3
 1054 0211 00000000 		.4byte	x_positions_template
 1055 0215 0F       		.uleb128 0xf
 1056 0216 2B000000 		.4byte	.LASF29
 1057 021a 01       		.byte	0x1
 1058 021b 09       		.byte	0x9
 1059 021c F3010000 		.4byte	0x1f3
 1060 0220 01       		.byte	0x1
 1061 0221 05       		.byte	0x5
 1062 0222 03       		.byte	0x3
 1063 0223 00000000 		.4byte	y_positions_template
 1064 0227 0F       		.uleb128 0xf
 1065 0228 18000000 		.4byte	.LASF30
 1066 022c 01       		.byte	0x1
 1067 022d 0A       		.byte	0xa
 1068 022e 7A000000 		.4byte	0x7a
 1069 0232 01       		.byte	0x1
 1070 0233 05       		.byte	0x5
 1071 0234 03       		.byte	0x3
 1072 0235 00000000 		.4byte	pos_index_template
ARM GAS  C:\Users\trehans\AppData\Local\Temp\cc5KTHxe.s 			page 23


 1073 0239 0F       		.uleb128 0xf
 1074 023a 2C010000 		.4byte	.LASF31
 1075 023e 01       		.byte	0x1
 1076 023f 0C       		.byte	0xc
 1077 0240 F3010000 		.4byte	0x1f3
 1078 0244 01       		.byte	0x1
 1079 0245 05       		.byte	0x5
 1080 0246 03       		.byte	0x3
 1081 0247 00000000 		.4byte	x_positions_test
 1082 024b 0F       		.uleb128 0xf
 1083 024c F4010000 		.4byte	.LASF32
 1084 0250 01       		.byte	0x1
 1085 0251 0D       		.byte	0xd
 1086 0252 F3010000 		.4byte	0x1f3
 1087 0256 01       		.byte	0x1
 1088 0257 05       		.byte	0x5
 1089 0258 03       		.byte	0x3
 1090 0259 00000000 		.4byte	y_positions_test
 1091 025d 0F       		.uleb128 0xf
 1092 025e 56000000 		.4byte	.LASF33
 1093 0262 01       		.byte	0x1
 1094 0263 0E       		.byte	0xe
 1095 0264 7A000000 		.4byte	0x7a
 1096 0268 01       		.byte	0x1
 1097 0269 05       		.byte	0x5
 1098 026a 03       		.byte	0x3
 1099 026b 00000000 		.4byte	pos_index_test
 1100 026f 0F       		.uleb128 0xf
 1101 0270 A5010000 		.4byte	.LASF34
 1102 0274 01       		.byte	0x1
 1103 0275 10       		.byte	0x10
 1104 0276 7A000000 		.4byte	0x7a
 1105 027a 01       		.byte	0x1
 1106 027b 05       		.byte	0x5
 1107 027c 03       		.byte	0x3
 1108 027d 00000000 		.4byte	pos_size
 1109 0281 0F       		.uleb128 0xf
 1110 0282 C5000000 		.4byte	.LASF35
 1111 0286 01       		.byte	0x1
 1112 0287 12       		.byte	0x12
 1113 0288 6F000000 		.4byte	0x6f
 1114 028c 01       		.byte	0x1
 1115 028d 05       		.byte	0x5
 1116 028e 03       		.byte	0x3
 1117 028f 00000000 		.4byte	action_state
 1118 0293 0F       		.uleb128 0xf
 1119 0294 4E000000 		.4byte	.LASF36
 1120 0298 01       		.byte	0x1
 1121 0299 13       		.byte	0x13
 1122 029a B7000000 		.4byte	0xb7
 1123 029e 01       		.byte	0x1
 1124 029f 05       		.byte	0x5
 1125 02a0 03       		.byte	0x3
 1126 02a1 00000000 		.4byte	reading
 1127 02a5 0F       		.uleb128 0xf
 1128 02a6 CC010000 		.4byte	.LASF37
 1129 02aa 01       		.byte	0x1
ARM GAS  C:\Users\trehans\AppData\Local\Temp\cc5KTHxe.s 			page 24


 1130 02ab 15       		.byte	0x15
 1131 02ac 6F000000 		.4byte	0x6f
 1132 02b0 01       		.byte	0x1
 1133 02b1 05       		.byte	0x5
 1134 02b2 03       		.byte	0x3
 1135 02b3 00000000 		.4byte	debug_state
 1136 02b7 00       		.byte	0
 1137              		.section	.debug_abbrev,"",%progbits
 1138              	.Ldebug_abbrev0:
 1139 0000 01       		.uleb128 0x1
 1140 0001 11       		.uleb128 0x11
 1141 0002 01       		.byte	0x1
 1142 0003 25       		.uleb128 0x25
 1143 0004 0E       		.uleb128 0xe
 1144 0005 13       		.uleb128 0x13
 1145 0006 0B       		.uleb128 0xb
 1146 0007 03       		.uleb128 0x3
 1147 0008 0E       		.uleb128 0xe
 1148 0009 1B       		.uleb128 0x1b
 1149 000a 0E       		.uleb128 0xe
 1150 000b 55       		.uleb128 0x55
 1151 000c 06       		.uleb128 0x6
 1152 000d 11       		.uleb128 0x11
 1153 000e 01       		.uleb128 0x1
 1154 000f 52       		.uleb128 0x52
 1155 0010 01       		.uleb128 0x1
 1156 0011 10       		.uleb128 0x10
 1157 0012 06       		.uleb128 0x6
 1158 0013 00       		.byte	0
 1159 0014 00       		.byte	0
 1160 0015 02       		.uleb128 0x2
 1161 0016 24       		.uleb128 0x24
 1162 0017 00       		.byte	0
 1163 0018 0B       		.uleb128 0xb
 1164 0019 0B       		.uleb128 0xb
 1165 001a 3E       		.uleb128 0x3e
 1166 001b 0B       		.uleb128 0xb
 1167 001c 03       		.uleb128 0x3
 1168 001d 0E       		.uleb128 0xe
 1169 001e 00       		.byte	0
 1170 001f 00       		.byte	0
 1171 0020 03       		.uleb128 0x3
 1172 0021 24       		.uleb128 0x24
 1173 0022 00       		.byte	0
 1174 0023 0B       		.uleb128 0xb
 1175 0024 0B       		.uleb128 0xb
 1176 0025 3E       		.uleb128 0x3e
 1177 0026 0B       		.uleb128 0xb
 1178 0027 03       		.uleb128 0x3
 1179 0028 08       		.uleb128 0x8
 1180 0029 00       		.byte	0
 1181 002a 00       		.byte	0
 1182 002b 04       		.uleb128 0x4
 1183 002c 16       		.uleb128 0x16
 1184 002d 00       		.byte	0
 1185 002e 03       		.uleb128 0x3
 1186 002f 0E       		.uleb128 0xe
ARM GAS  C:\Users\trehans\AppData\Local\Temp\cc5KTHxe.s 			page 25


 1187 0030 3A       		.uleb128 0x3a
 1188 0031 0B       		.uleb128 0xb
 1189 0032 3B       		.uleb128 0x3b
 1190 0033 0B       		.uleb128 0xb
 1191 0034 49       		.uleb128 0x49
 1192 0035 13       		.uleb128 0x13
 1193 0036 00       		.byte	0
 1194 0037 00       		.byte	0
 1195 0038 05       		.uleb128 0x5
 1196 0039 2E       		.uleb128 0x2e
 1197 003a 00       		.byte	0
 1198 003b 3F       		.uleb128 0x3f
 1199 003c 0C       		.uleb128 0xc
 1200 003d 03       		.uleb128 0x3
 1201 003e 0E       		.uleb128 0xe
 1202 003f 3A       		.uleb128 0x3a
 1203 0040 0B       		.uleb128 0xb
 1204 0041 3B       		.uleb128 0x3b
 1205 0042 0B       		.uleb128 0xb
 1206 0043 11       		.uleb128 0x11
 1207 0044 01       		.uleb128 0x1
 1208 0045 12       		.uleb128 0x12
 1209 0046 01       		.uleb128 0x1
 1210 0047 40       		.uleb128 0x40
 1211 0048 06       		.uleb128 0x6
 1212 0049 9742     		.uleb128 0x2117
 1213 004b 0C       		.uleb128 0xc
 1214 004c 00       		.byte	0
 1215 004d 00       		.byte	0
 1216 004e 06       		.uleb128 0x6
 1217 004f 2E       		.uleb128 0x2e
 1218 0050 00       		.byte	0
 1219 0051 3F       		.uleb128 0x3f
 1220 0052 0C       		.uleb128 0xc
 1221 0053 03       		.uleb128 0x3
 1222 0054 0E       		.uleb128 0xe
 1223 0055 3A       		.uleb128 0x3a
 1224 0056 0B       		.uleb128 0xb
 1225 0057 3B       		.uleb128 0x3b
 1226 0058 0B       		.uleb128 0xb
 1227 0059 11       		.uleb128 0x11
 1228 005a 01       		.uleb128 0x1
 1229 005b 12       		.uleb128 0x12
 1230 005c 01       		.uleb128 0x1
 1231 005d 40       		.uleb128 0x40
 1232 005e 06       		.uleb128 0x6
 1233 005f 9642     		.uleb128 0x2116
 1234 0061 0C       		.uleb128 0xc
 1235 0062 00       		.byte	0
 1236 0063 00       		.byte	0
 1237 0064 07       		.uleb128 0x7
 1238 0065 2E       		.uleb128 0x2e
 1239 0066 01       		.byte	0x1
 1240 0067 3F       		.uleb128 0x3f
 1241 0068 0C       		.uleb128 0xc
 1242 0069 03       		.uleb128 0x3
 1243 006a 0E       		.uleb128 0xe
ARM GAS  C:\Users\trehans\AppData\Local\Temp\cc5KTHxe.s 			page 26


 1244 006b 3A       		.uleb128 0x3a
 1245 006c 0B       		.uleb128 0xb
 1246 006d 3B       		.uleb128 0x3b
 1247 006e 0B       		.uleb128 0xb
 1248 006f 11       		.uleb128 0x11
 1249 0070 01       		.uleb128 0x1
 1250 0071 12       		.uleb128 0x12
 1251 0072 01       		.uleb128 0x1
 1252 0073 40       		.uleb128 0x40
 1253 0074 06       		.uleb128 0x6
 1254 0075 9642     		.uleb128 0x2116
 1255 0077 0C       		.uleb128 0xc
 1256 0078 01       		.uleb128 0x1
 1257 0079 13       		.uleb128 0x13
 1258 007a 00       		.byte	0
 1259 007b 00       		.byte	0
 1260 007c 08       		.uleb128 0x8
 1261 007d 34       		.uleb128 0x34
 1262 007e 00       		.byte	0
 1263 007f 03       		.uleb128 0x3
 1264 0080 0E       		.uleb128 0xe
 1265 0081 3A       		.uleb128 0x3a
 1266 0082 0B       		.uleb128 0xb
 1267 0083 3B       		.uleb128 0x3b
 1268 0084 0B       		.uleb128 0xb
 1269 0085 49       		.uleb128 0x49
 1270 0086 13       		.uleb128 0x13
 1271 0087 02       		.uleb128 0x2
 1272 0088 0A       		.uleb128 0xa
 1273 0089 00       		.byte	0
 1274 008a 00       		.byte	0
 1275 008b 09       		.uleb128 0x9
 1276 008c 34       		.uleb128 0x34
 1277 008d 00       		.byte	0
 1278 008e 03       		.uleb128 0x3
 1279 008f 08       		.uleb128 0x8
 1280 0090 3A       		.uleb128 0x3a
 1281 0091 0B       		.uleb128 0xb
 1282 0092 3B       		.uleb128 0x3b
 1283 0093 0B       		.uleb128 0xb
 1284 0094 49       		.uleb128 0x49
 1285 0095 13       		.uleb128 0x13
 1286 0096 02       		.uleb128 0x2
 1287 0097 0A       		.uleb128 0xa
 1288 0098 00       		.byte	0
 1289 0099 00       		.byte	0
 1290 009a 0A       		.uleb128 0xa
 1291 009b 01       		.uleb128 0x1
 1292 009c 01       		.byte	0x1
 1293 009d 49       		.uleb128 0x49
 1294 009e 13       		.uleb128 0x13
 1295 009f 01       		.uleb128 0x1
 1296 00a0 13       		.uleb128 0x13
 1297 00a1 00       		.byte	0
 1298 00a2 00       		.byte	0
 1299 00a3 0B       		.uleb128 0xb
 1300 00a4 21       		.uleb128 0x21
ARM GAS  C:\Users\trehans\AppData\Local\Temp\cc5KTHxe.s 			page 27


 1301 00a5 00       		.byte	0
 1302 00a6 49       		.uleb128 0x49
 1303 00a7 13       		.uleb128 0x13
 1304 00a8 2F       		.uleb128 0x2f
 1305 00a9 0B       		.uleb128 0xb
 1306 00aa 00       		.byte	0
 1307 00ab 00       		.byte	0
 1308 00ac 0C       		.uleb128 0xc
 1309 00ad 2E       		.uleb128 0x2e
 1310 00ae 01       		.byte	0x1
 1311 00af 3F       		.uleb128 0x3f
 1312 00b0 0C       		.uleb128 0xc
 1313 00b1 03       		.uleb128 0x3
 1314 00b2 0E       		.uleb128 0xe
 1315 00b3 3A       		.uleb128 0x3a
 1316 00b4 0B       		.uleb128 0xb
 1317 00b5 3B       		.uleb128 0x3b
 1318 00b6 0B       		.uleb128 0xb
 1319 00b7 27       		.uleb128 0x27
 1320 00b8 0C       		.uleb128 0xc
 1321 00b9 11       		.uleb128 0x11
 1322 00ba 01       		.uleb128 0x1
 1323 00bb 12       		.uleb128 0x12
 1324 00bc 01       		.uleb128 0x1
 1325 00bd 40       		.uleb128 0x40
 1326 00be 06       		.uleb128 0x6
 1327 00bf 9642     		.uleb128 0x2116
 1328 00c1 0C       		.uleb128 0xc
 1329 00c2 01       		.uleb128 0x1
 1330 00c3 13       		.uleb128 0x13
 1331 00c4 00       		.byte	0
 1332 00c5 00       		.byte	0
 1333 00c6 0D       		.uleb128 0xd
 1334 00c7 0B       		.uleb128 0xb
 1335 00c8 01       		.byte	0x1
 1336 00c9 11       		.uleb128 0x11
 1337 00ca 01       		.uleb128 0x1
 1338 00cb 12       		.uleb128 0x12
 1339 00cc 01       		.uleb128 0x1
 1340 00cd 00       		.byte	0
 1341 00ce 00       		.byte	0
 1342 00cf 0E       		.uleb128 0xe
 1343 00d0 2E       		.uleb128 0x2e
 1344 00d1 00       		.byte	0
 1345 00d2 3F       		.uleb128 0x3f
 1346 00d3 0C       		.uleb128 0xc
 1347 00d4 03       		.uleb128 0x3
 1348 00d5 0E       		.uleb128 0xe
 1349 00d6 3A       		.uleb128 0x3a
 1350 00d7 0B       		.uleb128 0xb
 1351 00d8 3B       		.uleb128 0x3b
 1352 00d9 0B       		.uleb128 0xb
 1353 00da 49       		.uleb128 0x49
 1354 00db 13       		.uleb128 0x13
 1355 00dc 11       		.uleb128 0x11
 1356 00dd 01       		.uleb128 0x1
 1357 00de 12       		.uleb128 0x12
ARM GAS  C:\Users\trehans\AppData\Local\Temp\cc5KTHxe.s 			page 28


 1358 00df 01       		.uleb128 0x1
 1359 00e0 40       		.uleb128 0x40
 1360 00e1 06       		.uleb128 0x6
 1361 00e2 9642     		.uleb128 0x2116
 1362 00e4 0C       		.uleb128 0xc
 1363 00e5 00       		.byte	0
 1364 00e6 00       		.byte	0
 1365 00e7 0F       		.uleb128 0xf
 1366 00e8 34       		.uleb128 0x34
 1367 00e9 00       		.byte	0
 1368 00ea 03       		.uleb128 0x3
 1369 00eb 0E       		.uleb128 0xe
 1370 00ec 3A       		.uleb128 0x3a
 1371 00ed 0B       		.uleb128 0xb
 1372 00ee 3B       		.uleb128 0x3b
 1373 00ef 0B       		.uleb128 0xb
 1374 00f0 49       		.uleb128 0x49
 1375 00f1 13       		.uleb128 0x13
 1376 00f2 3F       		.uleb128 0x3f
 1377 00f3 0C       		.uleb128 0xc
 1378 00f4 02       		.uleb128 0x2
 1379 00f5 0A       		.uleb128 0xa
 1380 00f6 00       		.byte	0
 1381 00f7 00       		.byte	0
 1382 00f8 00       		.byte	0
 1383              		.section	.debug_loc,"",%progbits
 1384              	.Ldebug_loc0:
 1385              	.LLST0:
 1386 0000 00000000 		.4byte	.LFB33
 1387 0004 02000000 		.4byte	.LCFI0
 1388 0008 0200     		.2byte	0x2
 1389 000a 7D       		.byte	0x7d
 1390 000b 00       		.sleb128 0
 1391 000c 02000000 		.4byte	.LCFI0
 1392 0010 04000000 		.4byte	.LCFI1
 1393 0014 0200     		.2byte	0x2
 1394 0016 7D       		.byte	0x7d
 1395 0017 08       		.sleb128 8
 1396 0018 04000000 		.4byte	.LCFI1
 1397 001c 68000000 		.4byte	.LFE33
 1398 0020 0200     		.2byte	0x2
 1399 0022 77       		.byte	0x77
 1400 0023 08       		.sleb128 8
 1401 0024 00000000 		.4byte	0
 1402 0028 00000000 		.4byte	0
 1403              	.LLST1:
 1404 002c 00000000 		.4byte	.LFB34
 1405 0030 02000000 		.4byte	.LCFI2
 1406 0034 0200     		.2byte	0x2
 1407 0036 7D       		.byte	0x7d
 1408 0037 00       		.sleb128 0
 1409 0038 02000000 		.4byte	.LCFI2
 1410 003c 04000000 		.4byte	.LCFI3
 1411 0040 0200     		.2byte	0x2
 1412 0042 7D       		.byte	0x7d
 1413 0043 08       		.sleb128 8
 1414 0044 04000000 		.4byte	.LCFI3
ARM GAS  C:\Users\trehans\AppData\Local\Temp\cc5KTHxe.s 			page 29


 1415 0048 20000000 		.4byte	.LFE34
 1416 004c 0200     		.2byte	0x2
 1417 004e 77       		.byte	0x77
 1418 004f 08       		.sleb128 8
 1419 0050 00000000 		.4byte	0
 1420 0054 00000000 		.4byte	0
 1421              	.LLST2:
 1422 0058 00000000 		.4byte	.LFB35
 1423 005c 02000000 		.4byte	.LCFI4
 1424 0060 0200     		.2byte	0x2
 1425 0062 7D       		.byte	0x7d
 1426 0063 00       		.sleb128 0
 1427 0064 02000000 		.4byte	.LCFI4
 1428 0068 04000000 		.4byte	.LCFI5
 1429 006c 0200     		.2byte	0x2
 1430 006e 7D       		.byte	0x7d
 1431 006f 08       		.sleb128 8
 1432 0070 04000000 		.4byte	.LCFI5
 1433 0074 06000000 		.4byte	.LCFI6
 1434 0078 0200     		.2byte	0x2
 1435 007a 7D       		.byte	0x7d
 1436 007b 28       		.sleb128 40
 1437 007c 06000000 		.4byte	.LCFI6
 1438 0080 EC000000 		.4byte	.LFE35
 1439 0084 0200     		.2byte	0x2
 1440 0086 77       		.byte	0x77
 1441 0087 20       		.sleb128 32
 1442 0088 00000000 		.4byte	0
 1443 008c 00000000 		.4byte	0
 1444              	.LLST3:
 1445 0090 00000000 		.4byte	.LFB36
 1446 0094 02000000 		.4byte	.LCFI7
 1447 0098 0200     		.2byte	0x2
 1448 009a 7D       		.byte	0x7d
 1449 009b 00       		.sleb128 0
 1450 009c 02000000 		.4byte	.LCFI7
 1451 00a0 04000000 		.4byte	.LCFI8
 1452 00a4 0200     		.2byte	0x2
 1453 00a6 7D       		.byte	0x7d
 1454 00a7 0C       		.sleb128 12
 1455 00a8 04000000 		.4byte	.LCFI8
 1456 00ac 06000000 		.4byte	.LCFI9
 1457 00b0 0200     		.2byte	0x2
 1458 00b2 7D       		.byte	0x7d
 1459 00b3 30       		.sleb128 48
 1460 00b4 06000000 		.4byte	.LCFI9
 1461 00b8 90010000 		.4byte	.LFE36
 1462 00bc 0200     		.2byte	0x2
 1463 00be 77       		.byte	0x77
 1464 00bf 28       		.sleb128 40
 1465 00c0 00000000 		.4byte	0
 1466 00c4 00000000 		.4byte	0
 1467              	.LLST4:
 1468 00c8 00000000 		.4byte	.LFB37
 1469 00cc 02000000 		.4byte	.LCFI10
 1470 00d0 0200     		.2byte	0x2
 1471 00d2 7D       		.byte	0x7d
ARM GAS  C:\Users\trehans\AppData\Local\Temp\cc5KTHxe.s 			page 30


 1472 00d3 00       		.sleb128 0
 1473 00d4 02000000 		.4byte	.LCFI10
 1474 00d8 04000000 		.4byte	.LCFI11
 1475 00dc 0200     		.2byte	0x2
 1476 00de 7D       		.byte	0x7d
 1477 00df 0C       		.sleb128 12
 1478 00e0 04000000 		.4byte	.LCFI11
 1479 00e4 06000000 		.4byte	.LCFI12
 1480 00e8 0200     		.2byte	0x2
 1481 00ea 7D       		.byte	0x7d
 1482 00eb 18       		.sleb128 24
 1483 00ec 06000000 		.4byte	.LCFI12
 1484 00f0 C0000000 		.4byte	.LFE37
 1485 00f4 0200     		.2byte	0x2
 1486 00f6 77       		.byte	0x77
 1487 00f7 18       		.sleb128 24
 1488 00f8 00000000 		.4byte	0
 1489 00fc 00000000 		.4byte	0
 1490              	.LLST5:
 1491 0100 00000000 		.4byte	.LFB38
 1492 0104 02000000 		.4byte	.LCFI13
 1493 0108 0200     		.2byte	0x2
 1494 010a 7D       		.byte	0x7d
 1495 010b 00       		.sleb128 0
 1496 010c 02000000 		.4byte	.LCFI13
 1497 0110 04000000 		.4byte	.LCFI14
 1498 0114 0200     		.2byte	0x2
 1499 0116 7D       		.byte	0x7d
 1500 0117 08       		.sleb128 8
 1501 0118 04000000 		.4byte	.LCFI14
 1502 011c 4C000000 		.4byte	.LFE38
 1503 0120 0200     		.2byte	0x2
 1504 0122 77       		.byte	0x77
 1505 0123 08       		.sleb128 8
 1506 0124 00000000 		.4byte	0
 1507 0128 00000000 		.4byte	0
 1508              		.section	.debug_aranges,"",%progbits
 1509 0000 44000000 		.4byte	0x44
 1510 0004 0200     		.2byte	0x2
 1511 0006 00000000 		.4byte	.Ldebug_info0
 1512 000a 04       		.byte	0x4
 1513 000b 00       		.byte	0
 1514 000c 0000     		.2byte	0
 1515 000e 0000     		.2byte	0
 1516 0010 00000000 		.4byte	.LFB33
 1517 0014 68000000 		.4byte	.LFE33-.LFB33
 1518 0018 00000000 		.4byte	.LFB34
 1519 001c 20000000 		.4byte	.LFE34-.LFB34
 1520 0020 00000000 		.4byte	.LFB35
 1521 0024 EC000000 		.4byte	.LFE35-.LFB35
 1522 0028 00000000 		.4byte	.LFB36
 1523 002c 90010000 		.4byte	.LFE36-.LFB36
 1524 0030 00000000 		.4byte	.LFB37
 1525 0034 C0000000 		.4byte	.LFE37-.LFB37
 1526 0038 00000000 		.4byte	.LFB38
 1527 003c 4C000000 		.4byte	.LFE38-.LFB38
 1528 0040 00000000 		.4byte	0
ARM GAS  C:\Users\trehans\AppData\Local\Temp\cc5KTHxe.s 			page 31


 1529 0044 00000000 		.4byte	0
 1530              		.section	.debug_ranges,"",%progbits
 1531              	.Ldebug_ranges0:
 1532 0000 00000000 		.4byte	.LFB33
 1533 0004 68000000 		.4byte	.LFE33
 1534 0008 00000000 		.4byte	.LFB34
 1535 000c 20000000 		.4byte	.LFE34
 1536 0010 00000000 		.4byte	.LFB35
 1537 0014 EC000000 		.4byte	.LFE35
 1538 0018 00000000 		.4byte	.LFB36
 1539 001c 90010000 		.4byte	.LFE36
 1540 0020 00000000 		.4byte	.LFB37
 1541 0024 C0000000 		.4byte	.LFE37
 1542 0028 00000000 		.4byte	.LFB38
 1543 002c 4C000000 		.4byte	.LFE38
 1544 0030 00000000 		.4byte	0
 1545 0034 00000000 		.4byte	0
 1546              		.section	.debug_line,"",%progbits
 1547              	.Ldebug_line0:
 1548 0000 4D010000 		.section	.debug_str,"MS",%progbits,1
 1548      02005300 
 1548      00000201 
 1548      FB0E0D00 
 1548      01010101 
 1549              	.LASF17:
 1550 0000 626F6F6C 		.ascii	"bool\000"
 1550      00
 1551              	.LASF3:
 1552 0005 73686F72 		.ascii	"short unsigned int\000"
 1552      7420756E 
 1552      7369676E 
 1552      65642069 
 1552      6E7400
 1553              	.LASF30:
 1554 0018 706F735F 		.ascii	"pos_index_template\000"
 1554      696E6465 
 1554      785F7465 
 1554      6D706C61 
 1554      746500
 1555              	.LASF29:
 1556 002b 795F706F 		.ascii	"y_positions_template\000"
 1556      73697469 
 1556      6F6E735F 
 1556      74656D70 
 1556      6C617465 
 1557              	.LASF19:
 1558 0040 73746172 		.ascii	"start_reading\000"
 1558      745F7265 
 1558      6164696E 
 1558      6700
 1559              	.LASF36:
 1560 004e 72656164 		.ascii	"reading\000"
 1560      696E6700 
 1561              	.LASF33:
 1562 0056 706F735F 		.ascii	"pos_index_test\000"
 1562      696E6465 
 1562      785F7465 
ARM GAS  C:\Users\trehans\AppData\Local\Temp\cc5KTHxe.s 			page 32


 1562      737400
 1563              	.LASF40:
 1564 0065 433A5C55 		.ascii	"C:\\Users\\trehans\\Documents\\SignAway\\Source\\PS"
 1564      73657273 
 1564      5C747265 
 1564      68616E73 
 1564      5C446F63 
 1565 0092 6F435C53 		.ascii	"oC\\SignatureVerifier\\SignatureVerifier.cydsn\000"
 1565      69676E61 
 1565      74757265 
 1565      56657269 
 1565      66696572 
 1566              	.LASF13:
 1567 00bf 666C6F61 		.ascii	"float\000"
 1567      7400
 1568              	.LASF35:
 1569 00c5 61637469 		.ascii	"action_state\000"
 1569      6F6E5F73 
 1569      74617465 
 1569      00
 1570              	.LASF1:
 1571 00d2 756E7369 		.ascii	"unsigned char\000"
 1571      676E6564 
 1571      20636861 
 1571      7200
 1572              	.LASF28:
 1573 00e0 785F706F 		.ascii	"x_positions_template\000"
 1573      73697469 
 1573      6F6E735F 
 1573      74656D70 
 1573      6C617465 
 1574              	.LASF12:
 1575 00f5 696E7431 		.ascii	"int16\000"
 1575      3600
 1576              	.LASF5:
 1577 00fb 6C6F6E67 		.ascii	"long unsigned int\000"
 1577      20756E73 
 1577      69676E65 
 1577      6420696E 
 1577      7400
 1578              	.LASF9:
 1579 010d 75696E74 		.ascii	"uint8\000"
 1579      3800
 1580              	.LASF27:
 1581 0113 795F706F 		.ascii	"y_position\000"
 1581      73697469 
 1581      6F6E00
 1582              	.LASF21:
 1583 011e 72784461 		.ascii	"rxData\000"
 1583      746100
 1584              	.LASF14:
 1585 0125 646F7562 		.ascii	"double\000"
 1585      6C6500
 1586              	.LASF31:
 1587 012c 785F706F 		.ascii	"x_positions_test\000"
 1587      73697469 
 1587      6F6E735F 
ARM GAS  C:\Users\trehans\AppData\Local\Temp\cc5KTHxe.s 			page 33


 1587      74657374 
 1587      00
 1588              	.LASF39:
 1589 013d 2E5C6D61 		.ascii	".\\main.c\000"
 1589      696E2E63 
 1589      00
 1590              	.LASF20:
 1591 0146 6F757470 		.ascii	"outputString\000"
 1591      75745374 
 1591      72696E67 
 1591      00
 1592              	.LASF10:
 1593 0153 75696E74 		.ascii	"uint16\000"
 1593      313600
 1594              	.LASF11:
 1595 015a 696E7438 		.ascii	"int8\000"
 1595      00
 1596              	.LASF42:
 1597 015f 6D61696E 		.ascii	"main\000"
 1597      00
 1598              	.LASF41:
 1599 0164 73746F70 		.ascii	"stop_reading\000"
 1599      5F726561 
 1599      64696E67 
 1599      00
 1600              	.LASF8:
 1601 0171 756E7369 		.ascii	"unsigned int\000"
 1601      676E6564 
 1601      20696E74 
 1601      00
 1602              	.LASF22:
 1603 017e 64656C74 		.ascii	"delta_x\000"
 1603      615F7800 
 1604              	.LASF23:
 1605 0186 64656C74 		.ascii	"delta_y\000"
 1605      615F7900 
 1606              	.LASF7:
 1607 018e 6C6F6E67 		.ascii	"long long unsigned int\000"
 1607      206C6F6E 
 1607      6720756E 
 1607      7369676E 
 1607      65642069 
 1608              	.LASF34:
 1609 01a5 706F735F 		.ascii	"pos_size\000"
 1609      73697A65 
 1609      00
 1610              	.LASF25:
 1611 01ae 6973725F 		.ascii	"isr_button_handler\000"
 1611      62757474 
 1611      6F6E5F68 
 1611      616E646C 
 1611      657200
 1612              	.LASF26:
 1613 01c1 785F706F 		.ascii	"x_position\000"
 1613      73697469 
 1613      6F6E00
 1614              	.LASF37:
ARM GAS  C:\Users\trehans\AppData\Local\Temp\cc5KTHxe.s 			page 34


 1615 01cc 64656275 		.ascii	"debug_state\000"
 1615      675F7374 
 1615      61746500 
 1616              	.LASF16:
 1617 01d8 73697A65 		.ascii	"sizetype\000"
 1617      74797065 
 1617      00
 1618              	.LASF6:
 1619 01e1 6C6F6E67 		.ascii	"long long int\000"
 1619      206C6F6E 
 1619      6720696E 
 1619      7400
 1620              	.LASF15:
 1621 01ef 63686172 		.ascii	"char\000"
 1621      00
 1622              	.LASF32:
 1623 01f4 795F706F 		.ascii	"y_positions_test\000"
 1623      73697469 
 1623      6F6E735F 
 1623      74657374 
 1623      00
 1624              	.LASF2:
 1625 0205 73686F72 		.ascii	"short int\000"
 1625      7420696E 
 1625      7400
 1626              	.LASF38:
 1627 020f 474E5520 		.ascii	"GNU C 4.7.3 20130312 (release) [ARM/embedded-4_7-br"
 1627      4320342E 
 1627      372E3320 
 1627      32303133 
 1627      30333132 
 1628 0242 616E6368 		.ascii	"anch revision 196615]\000"
 1628      20726576 
 1628      6973696F 
 1628      6E203139 
 1628      36363135 
 1629              	.LASF18:
 1630 0258 72657365 		.ascii	"reset_all\000"
 1630      745F616C 
 1630      6C00
 1631              	.LASF4:
 1632 0262 6C6F6E67 		.ascii	"long int\000"
 1632      20696E74 
 1632      00
 1633              	.LASF0:
 1634 026b 7369676E 		.ascii	"signed char\000"
 1634      65642063 
 1634      68617200 
 1635              	.LASF24:
 1636 0277 6973725F 		.ascii	"isr_spi_handler\000"
 1636      7370695F 
 1636      68616E64 
 1636      6C657200 
 1637              		.ident	"GCC: (GNU Tools for ARM Embedded Processors) 4.7.3 20130312 (release) [ARM/embedded-4_7-br
