ARM GAS  C:\Users\trehans\AppData\Local\Temp\cctwvSyO.s 			page 1


   1              		.cpu cortex-m0
   2              		.fpu softvfp
   3              		.eabi_attribute 20, 1
   4              		.eabi_attribute 21, 1
   5              		.eabi_attribute 23, 3
   6              		.eabi_attribute 24, 1
   7              		.eabi_attribute 25, 1
   8              		.eabi_attribute 26, 1
   9              		.eabi_attribute 30, 6
  10              		.eabi_attribute 34, 0
  11              		.eabi_attribute 18, 4
  12              		.code	16
  13              		.file	"main.c"
  14              		.text
  15              	.Ltext0:
  16              		.cfi_sections	.debug_frame
  17              		.section	.rodata
  18              		.align	2
  19              	.LC0:
  20 0000 25303458 		.ascii	"%04X\000"
  20      00
  21 0005 000000   		.align	2
  22              	.LC2:
  23 0008 0D0A00   		.ascii	"\015\012\000"
  24 000b 00       		.section	.text.main,"ax",%progbits
  25              		.align	2
  26              		.global	main
  27              		.code	16
  28              		.thumb_func
  29              		.type	main, %function
  30              	main:
  31              	.LFB33:
  32              		.file 1 ".\\main.c"
   1:.\main.c      **** /* ========================================
   2:.\main.c      ****  *
   3:.\main.c      ****  * Copyright YOUR COMPANY, THE YEAR
   4:.\main.c      ****  * All Rights Reserved
   5:.\main.c      ****  * UNPUBLISHED, LICENSED SOFTWARE.
   6:.\main.c      ****  *
   7:.\main.c      ****  * CONFIDENTIAL AND PROPRIETARY INFORMATION
   8:.\main.c      ****  * WHICH IS THE PROPERTY OF your company.
   9:.\main.c      ****  *
  10:.\main.c      ****  * ========================================
  11:.\main.c      **** */
  12:.\main.c      **** #include <project.h>
  13:.\main.c      **** #include <header.h>
  14:.\main.c      **** #include <stdio.h>
  15:.\main.c      **** 
  16:.\main.c      **** int main()
  17:.\main.c      **** {
  33              		.loc 1 17 0
  34              		.cfi_startproc
  35 0000 90B5     		push	{r4, r7, lr}
  36              	.LCFI0:
  37              		.cfi_def_cfa_offset 12
  38              		.cfi_offset 4, -12
  39              		.cfi_offset 7, -8
ARM GAS  C:\Users\trehans\AppData\Local\Temp\cctwvSyO.s 			page 2


  40              		.cfi_offset 14, -4
  41 0002 85B0     		sub	sp, sp, #20
  42              	.LCFI1:
  43              		.cfi_def_cfa_offset 32
  44 0004 00AF     		add	r7, sp, #0
  45              	.LCFI2:
  46              		.cfi_def_cfa_register 7
  18:.\main.c      ****     SPI_Start();
  47              		.loc 1 18 0
  48 0006 FFF7FEFF 		bl	SPI_Start
  19:.\main.c      ****     UART_Start();
  49              		.loc 1 19 0
  50 000a FFF7FEFF 		bl	UART_Start
  20:.\main.c      ****     
  21:.\main.c      ****     uint8 debugState = LOW;
  51              		.loc 1 21 0
  52 000e 3B1C     		mov	r3, r7
  53 0010 0F33     		add	r3, r3, #15
  54 0012 0022     		mov	r2, #0
  55 0014 1A70     		strb	r2, [r3]
  22:.\main.c      ****     Pin_LED_Debug_Write(debugState);
  56              		.loc 1 22 0
  57 0016 3B1C     		mov	r3, r7
  58 0018 0F33     		add	r3, r3, #15
  59 001a 1B78     		ldrb	r3, [r3]
  60 001c 181C     		mov	r0, r3
  61 001e FFF7FEFF 		bl	Pin_LED_Debug_Write
  62 0022 00E0     		b	.L3
  63              	.L4:
  23:.\main.c      **** 
  24:.\main.c      ****     /* CyGlobalIntEnable; */ /* Uncomment this line to enable global interrupts. */
  25:.\main.c      ****     for(;;)
  26:.\main.c      ****     {
  27:.\main.c      ****         uint8 rxBufferSize = SPI_GetRxBufferSize();
  28:.\main.c      ****         if (rxBufferSize > 0) {
  29:.\main.c      ****             uint16 rxData = SPI_ReadRxData();
  30:.\main.c      ****             char outputString[5];
  31:.\main.c      ****             snprintf(outputString, 5, "%04X", rxData);
  32:.\main.c      ****             UART_UartPutString(outputString);
  33:.\main.c      ****             UART_UartPutString("\r\n");
  34:.\main.c      ****             debugState = HIGH - debugState;
  35:.\main.c      ****             Pin_LED_Debug_Write(debugState);
  36:.\main.c      ****         }
  37:.\main.c      ****     }
  64              		.loc 1 37 0
  65 0024 C046     		mov	r8, r8
  66              	.L3:
  67              	.LBB2:
  27:.\main.c      ****         uint8 rxBufferSize = SPI_GetRxBufferSize();
  68              		.loc 1 27 0
  69 0026 3C1C     		mov	r4, r7
  70 0028 0E34     		add	r4, r4, #14
  71 002a FFF7FEFF 		bl	SPI_GetRxBufferSize
  72 002e 031C     		mov	r3, r0
  73 0030 2370     		strb	r3, [r4]
  28:.\main.c      ****         if (rxBufferSize > 0) {
  74              		.loc 1 28 0
ARM GAS  C:\Users\trehans\AppData\Local\Temp\cctwvSyO.s 			page 3


  75 0032 3B1C     		mov	r3, r7
  76 0034 0E33     		add	r3, r3, #14
  77 0036 1B78     		ldrb	r3, [r3]
  78 0038 002B     		cmp	r3, #0
  79 003a F3D0     		beq	.L4
  80              	.LBB3:
  29:.\main.c      ****             uint16 rxData = SPI_ReadRxData();
  81              		.loc 1 29 0
  82 003c 3C1C     		mov	r4, r7
  83 003e 0C34     		add	r4, r4, #12
  84 0040 FFF7FEFF 		bl	SPI_ReadRxData
  85 0044 031C     		mov	r3, r0
  86 0046 2380     		strh	r3, [r4]
  31:.\main.c      ****             snprintf(outputString, 5, "%04X", rxData);
  87              		.loc 1 31 0
  88 0048 3B1C     		mov	r3, r7
  89 004a 0C33     		add	r3, r3, #12
  90 004c 1B88     		ldrh	r3, [r3]
  91 004e 391D     		add	r1, r7, #4
  92 0050 0D4A     		ldr	r2, .L5
  93 0052 081C     		mov	r0, r1
  94 0054 0521     		mov	r1, #5
  95 0056 FFF7FEFF 		bl	snprintf
  32:.\main.c      ****             UART_UartPutString(outputString);
  96              		.loc 1 32 0
  97 005a 3B1D     		add	r3, r7, #4
  98 005c 181C     		mov	r0, r3
  99 005e FFF7FEFF 		bl	UART_UartPutString
  33:.\main.c      ****             UART_UartPutString("\r\n");
 100              		.loc 1 33 0
 101 0062 0A4B     		ldr	r3, .L5+4
 102 0064 181C     		mov	r0, r3
 103 0066 FFF7FEFF 		bl	UART_UartPutString
  34:.\main.c      ****             debugState = HIGH - debugState;
 104              		.loc 1 34 0
 105 006a 3B1C     		mov	r3, r7
 106 006c 0F33     		add	r3, r3, #15
 107 006e 3A1C     		mov	r2, r7
 108 0070 0F32     		add	r2, r2, #15
 109 0072 1278     		ldrb	r2, [r2]
 110 0074 0121     		mov	r1, #1
 111 0076 8A1A     		sub	r2, r1, r2
 112 0078 1A70     		strb	r2, [r3]
  35:.\main.c      ****             Pin_LED_Debug_Write(debugState);
 113              		.loc 1 35 0
 114 007a 3B1C     		mov	r3, r7
 115 007c 0F33     		add	r3, r3, #15
 116 007e 1B78     		ldrb	r3, [r3]
 117 0080 181C     		mov	r0, r3
 118 0082 FFF7FEFF 		bl	Pin_LED_Debug_Write
 119              	.LBE3:
 120              	.LBE2:
 121              		.loc 1 37 0
 122 0086 CDE7     		b	.L4
 123              	.L6:
 124              		.align	2
 125              	.L5:
ARM GAS  C:\Users\trehans\AppData\Local\Temp\cctwvSyO.s 			page 4


 126 0088 00000000 		.word	.LC0
 127 008c 08000000 		.word	.LC2
 128              		.cfi_endproc
 129              	.LFE33:
 130              		.size	main, .-main
 131              		.text
 132              	.Letext0:
 133              		.file 2 "./Generated_Source/PSoC4/cytypes.h"