ARM GAS  C:\Users\trehans\AppData\Local\Temp\ccuhN6Hk.s 			page 1


   1              		.cpu cortex-m0
   2              		.fpu softvfp
   3              		.eabi_attribute 20, 1
   4              		.eabi_attribute 21, 1
   5              		.eabi_attribute 23, 3
   6              		.eabi_attribute 24, 1
   7              		.eabi_attribute 25, 1
   8              		.eabi_attribute 26, 1
   9              		.eabi_attribute 30, 6
  10              		.eabi_attribute 34, 0
  11              		.eabi_attribute 18, 4
  12              		.code	16
  13              		.file	"Pin_Button.c"
  14              		.text
  15              	.Ltext0:
  16              		.cfi_sections	.debug_frame
  17              		.section	.text.Pin_Button_Write,"ax",%progbits
  18              		.align	2
  19              		.global	Pin_Button_Write
  20              		.code	16
  21              		.thumb_func
  22              		.type	Pin_Button_Write, %function
  23              	Pin_Button_Write:
  24              	.LFB0:
  25              		.file 1 ".\\Generated_Source\\PSoC4\\Pin_Button.c"
   1:.\Generated_Source\PSoC4/Pin_Button.c **** /*******************************************************************************
   2:.\Generated_Source\PSoC4/Pin_Button.c **** * File Name: Pin_Button.c  
   3:.\Generated_Source\PSoC4/Pin_Button.c **** * Version 2.5
   4:.\Generated_Source\PSoC4/Pin_Button.c **** *
   5:.\Generated_Source\PSoC4/Pin_Button.c **** * Description:
   6:.\Generated_Source\PSoC4/Pin_Button.c **** *  This file contains API to enable firmware control of a Pins component.
   7:.\Generated_Source\PSoC4/Pin_Button.c **** *
   8:.\Generated_Source\PSoC4/Pin_Button.c **** * Note:
   9:.\Generated_Source\PSoC4/Pin_Button.c **** *
  10:.\Generated_Source\PSoC4/Pin_Button.c **** ********************************************************************************
  11:.\Generated_Source\PSoC4/Pin_Button.c **** * Copyright 2008-2014, Cypress Semiconductor Corporation.  All rights reserved.
  12:.\Generated_Source\PSoC4/Pin_Button.c **** * You may use this file only in accordance with the license, terms, conditions, 
  13:.\Generated_Source\PSoC4/Pin_Button.c **** * disclaimers, and limitations in the end user license agreement accompanying 
  14:.\Generated_Source\PSoC4/Pin_Button.c **** * the software package with which this file was provided.
  15:.\Generated_Source\PSoC4/Pin_Button.c **** *******************************************************************************/
  16:.\Generated_Source\PSoC4/Pin_Button.c **** 
  17:.\Generated_Source\PSoC4/Pin_Button.c **** #include "cytypes.h"
  18:.\Generated_Source\PSoC4/Pin_Button.c **** #include "Pin_Button.h"
  19:.\Generated_Source\PSoC4/Pin_Button.c **** 
  20:.\Generated_Source\PSoC4/Pin_Button.c **** #define SetP4PinDriveMode(shift, mode)  \
  21:.\Generated_Source\PSoC4/Pin_Button.c ****     do { \
  22:.\Generated_Source\PSoC4/Pin_Button.c ****         Pin_Button_PC =   (Pin_Button_PC & \
  23:.\Generated_Source\PSoC4/Pin_Button.c ****                                 (uint32)(~(uint32)(Pin_Button_DRIVE_MODE_IND_MASK << (Pin_Button_DR
  24:.\Generated_Source\PSoC4/Pin_Button.c ****                                 (uint32)((uint32)(mode) << (Pin_Button_DRIVE_MODE_BITS * (shift)));
  25:.\Generated_Source\PSoC4/Pin_Button.c ****     } while (0)
  26:.\Generated_Source\PSoC4/Pin_Button.c **** 
  27:.\Generated_Source\PSoC4/Pin_Button.c **** 
  28:.\Generated_Source\PSoC4/Pin_Button.c **** /*******************************************************************************
  29:.\Generated_Source\PSoC4/Pin_Button.c **** * Function Name: Pin_Button_Write
  30:.\Generated_Source\PSoC4/Pin_Button.c **** ********************************************************************************
  31:.\Generated_Source\PSoC4/Pin_Button.c **** *
  32:.\Generated_Source\PSoC4/Pin_Button.c **** * Summary:
ARM GAS  C:\Users\trehans\AppData\Local\Temp\ccuhN6Hk.s 			page 2


  33:.\Generated_Source\PSoC4/Pin_Button.c **** *  Assign a new value to the digital port's data output register.  
  34:.\Generated_Source\PSoC4/Pin_Button.c **** *
  35:.\Generated_Source\PSoC4/Pin_Button.c **** * Parameters:  
  36:.\Generated_Source\PSoC4/Pin_Button.c **** *  prtValue:  The value to be assigned to the Digital Port. 
  37:.\Generated_Source\PSoC4/Pin_Button.c **** *
  38:.\Generated_Source\PSoC4/Pin_Button.c **** * Return: 
  39:.\Generated_Source\PSoC4/Pin_Button.c **** *  None 
  40:.\Generated_Source\PSoC4/Pin_Button.c **** *  
  41:.\Generated_Source\PSoC4/Pin_Button.c **** *******************************************************************************/
  42:.\Generated_Source\PSoC4/Pin_Button.c **** void Pin_Button_Write(uint8 value) 
  43:.\Generated_Source\PSoC4/Pin_Button.c **** {
  26              		.loc 1 43 0
  27              		.cfi_startproc
  28 0000 80B5     		push	{r7, lr}
  29              	.LCFI0:
  30              		.cfi_def_cfa_offset 8
  31              		.cfi_offset 7, -8
  32              		.cfi_offset 14, -4
  33 0002 84B0     		sub	sp, sp, #16
  34              	.LCFI1:
  35              		.cfi_def_cfa_offset 24
  36 0004 00AF     		add	r7, sp, #0
  37              	.LCFI2:
  38              		.cfi_def_cfa_register 7
  39 0006 021C     		mov	r2, r0
  40 0008 FB1D     		add	r3, r7, #7
  41 000a 1A70     		strb	r2, [r3]
  44:.\Generated_Source\PSoC4/Pin_Button.c ****     uint8 drVal = (uint8)(Pin_Button_DR & (uint8)(~Pin_Button_MASK));
  42              		.loc 1 44 0
  43 000c 0D4B     		ldr	r3, .L2
  44 000e 1B68     		ldr	r3, [r3]
  45 0010 DAB2     		uxtb	r2, r3
  46 0012 3B1C     		mov	r3, r7
  47 0014 0F33     		add	r3, r3, #15
  48 0016 0721     		mov	r1, #7
  49 0018 8A43     		bic	r2, r1
  50 001a 1A70     		strb	r2, [r3]
  45:.\Generated_Source\PSoC4/Pin_Button.c ****     drVal = (drVal | ((uint8)(value << Pin_Button_SHIFT) & Pin_Button_MASK));
  51              		.loc 1 45 0
  52 001c FB1D     		add	r3, r7, #7
  53 001e 1A78     		ldrb	r2, [r3]
  54 0020 0723     		mov	r3, #7
  55 0022 1340     		and	r3, r2
  56 0024 D9B2     		uxtb	r1, r3
  57 0026 3B1C     		mov	r3, r7
  58 0028 0F33     		add	r3, r3, #15
  59 002a 3A1C     		mov	r2, r7
  60 002c 0F32     		add	r2, r2, #15
  61 002e 1278     		ldrb	r2, [r2]
  62 0030 0A43     		orr	r2, r1
  63 0032 1A70     		strb	r2, [r3]
  46:.\Generated_Source\PSoC4/Pin_Button.c ****     Pin_Button_DR = (uint32)drVal;
  64              		.loc 1 46 0
  65 0034 034B     		ldr	r3, .L2
  66 0036 3A1C     		mov	r2, r7
  67 0038 0F32     		add	r2, r2, #15
  68 003a 1278     		ldrb	r2, [r2]
ARM GAS  C:\Users\trehans\AppData\Local\Temp\ccuhN6Hk.s 			page 3


  69 003c 1A60     		str	r2, [r3]
  47:.\Generated_Source\PSoC4/Pin_Button.c **** }
  70              		.loc 1 47 0
  71 003e BD46     		mov	sp, r7
  72 0040 04B0     		add	sp, sp, #16
  73              		@ sp needed for prologue
  74 0042 80BD     		pop	{r7, pc}
  75              	.L3:
  76              		.align	2
  77              	.L2:
  78 0044 00020440 		.word	1074004480
  79              		.cfi_endproc
  80              	.LFE0:
  81              		.size	Pin_Button_Write, .-Pin_Button_Write
  82              		.section	.text.Pin_Button_SetDriveMode,"ax",%progbits
  83              		.align	2
  84              		.global	Pin_Button_SetDriveMode
  85              		.code	16
  86              		.thumb_func
  87              		.type	Pin_Button_SetDriveMode, %function
  88              	Pin_Button_SetDriveMode:
  89              	.LFB1:
  48:.\Generated_Source\PSoC4/Pin_Button.c **** 
  49:.\Generated_Source\PSoC4/Pin_Button.c **** 
  50:.\Generated_Source\PSoC4/Pin_Button.c **** /*******************************************************************************
  51:.\Generated_Source\PSoC4/Pin_Button.c **** * Function Name: Pin_Button_SetDriveMode
  52:.\Generated_Source\PSoC4/Pin_Button.c **** ********************************************************************************
  53:.\Generated_Source\PSoC4/Pin_Button.c **** *
  54:.\Generated_Source\PSoC4/Pin_Button.c **** * Summary:
  55:.\Generated_Source\PSoC4/Pin_Button.c **** *  Change the drive mode on the pins of the port.
  56:.\Generated_Source\PSoC4/Pin_Button.c **** * 
  57:.\Generated_Source\PSoC4/Pin_Button.c **** * Parameters:  
  58:.\Generated_Source\PSoC4/Pin_Button.c **** *  mode:  Change the pins to one of the following drive modes.
  59:.\Generated_Source\PSoC4/Pin_Button.c **** *
  60:.\Generated_Source\PSoC4/Pin_Button.c **** *  Pin_Button_DM_STRONG     Strong Drive 
  61:.\Generated_Source\PSoC4/Pin_Button.c **** *  Pin_Button_DM_OD_HI      Open Drain, Drives High 
  62:.\Generated_Source\PSoC4/Pin_Button.c **** *  Pin_Button_DM_OD_LO      Open Drain, Drives Low 
  63:.\Generated_Source\PSoC4/Pin_Button.c **** *  Pin_Button_DM_RES_UP     Resistive Pull Up 
  64:.\Generated_Source\PSoC4/Pin_Button.c **** *  Pin_Button_DM_RES_DWN    Resistive Pull Down 
  65:.\Generated_Source\PSoC4/Pin_Button.c **** *  Pin_Button_DM_RES_UPDWN  Resistive Pull Up/Down 
  66:.\Generated_Source\PSoC4/Pin_Button.c **** *  Pin_Button_DM_DIG_HIZ    High Impedance Digital 
  67:.\Generated_Source\PSoC4/Pin_Button.c **** *  Pin_Button_DM_ALG_HIZ    High Impedance Analog 
  68:.\Generated_Source\PSoC4/Pin_Button.c **** *
  69:.\Generated_Source\PSoC4/Pin_Button.c **** * Return: 
  70:.\Generated_Source\PSoC4/Pin_Button.c **** *  None
  71:.\Generated_Source\PSoC4/Pin_Button.c **** *
  72:.\Generated_Source\PSoC4/Pin_Button.c **** *******************************************************************************/
  73:.\Generated_Source\PSoC4/Pin_Button.c **** void Pin_Button_SetDriveMode(uint8 mode) 
  74:.\Generated_Source\PSoC4/Pin_Button.c **** {
  90              		.loc 1 74 0
  91              		.cfi_startproc
  92 0000 80B5     		push	{r7, lr}
  93              	.LCFI3:
  94              		.cfi_def_cfa_offset 8
  95              		.cfi_offset 7, -8
  96              		.cfi_offset 14, -4
  97 0002 82B0     		sub	sp, sp, #8
ARM GAS  C:\Users\trehans\AppData\Local\Temp\ccuhN6Hk.s 			page 4


  98              	.LCFI4:
  99              		.cfi_def_cfa_offset 16
 100 0004 00AF     		add	r7, sp, #0
 101              	.LCFI5:
 102              		.cfi_def_cfa_register 7
 103 0006 021C     		mov	r2, r0
 104 0008 FB1D     		add	r3, r7, #7
 105 000a 1A70     		strb	r2, [r3]
  75:.\Generated_Source\PSoC4/Pin_Button.c **** 	SetP4PinDriveMode(Pin_Button__0__SHIFT, mode);
 106              		.loc 1 75 0
 107 000c 114B     		ldr	r3, .L5
 108 000e 114A     		ldr	r2, .L5
 109 0010 1268     		ldr	r2, [r2]
 110 0012 0721     		mov	r1, #7
 111 0014 101C     		mov	r0, r2
 112 0016 8843     		bic	r0, r1
 113 0018 011C     		mov	r1, r0
 114 001a FA1D     		add	r2, r7, #7
 115 001c 1278     		ldrb	r2, [r2]
 116 001e 0A43     		orr	r2, r1
 117 0020 1A60     		str	r2, [r3]
  76:.\Generated_Source\PSoC4/Pin_Button.c **** 	SetP4PinDriveMode(Pin_Button__1__SHIFT, mode);
 118              		.loc 1 76 0
 119 0022 0C4B     		ldr	r3, .L5
 120 0024 0B4A     		ldr	r2, .L5
 121 0026 1268     		ldr	r2, [r2]
 122 0028 3821     		mov	r1, #56
 123 002a 101C     		mov	r0, r2
 124 002c 8843     		bic	r0, r1
 125 002e 011C     		mov	r1, r0
 126 0030 FA1D     		add	r2, r7, #7
 127 0032 1278     		ldrb	r2, [r2]
 128 0034 D200     		lsl	r2, r2, #3
 129 0036 0A43     		orr	r2, r1
 130 0038 1A60     		str	r2, [r3]
  77:.\Generated_Source\PSoC4/Pin_Button.c **** 	SetP4PinDriveMode(Pin_Button__2__SHIFT, mode);
 131              		.loc 1 77 0
 132 003a 064B     		ldr	r3, .L5
 133 003c 054A     		ldr	r2, .L5
 134 003e 1168     		ldr	r1, [r2]
 135 0040 054A     		ldr	r2, .L5+4
 136 0042 1140     		and	r1, r2
 137 0044 FA1D     		add	r2, r7, #7
 138 0046 1278     		ldrb	r2, [r2]
 139 0048 9201     		lsl	r2, r2, #6
 140 004a 0A43     		orr	r2, r1
 141 004c 1A60     		str	r2, [r3]
  78:.\Generated_Source\PSoC4/Pin_Button.c **** }
 142              		.loc 1 78 0
 143 004e BD46     		mov	sp, r7
 144 0050 02B0     		add	sp, sp, #8
 145              		@ sp needed for prologue
 146 0052 80BD     		pop	{r7, pc}
 147              	.L6:
 148              		.align	2
 149              	.L5:
 150 0054 08020440 		.word	1074004488
ARM GAS  C:\Users\trehans\AppData\Local\Temp\ccuhN6Hk.s 			page 5


 151 0058 3FFEFFFF 		.word	-449
 152              		.cfi_endproc
 153              	.LFE1:
 154              		.size	Pin_Button_SetDriveMode, .-Pin_Button_SetDriveMode
 155              		.section	.text.Pin_Button_Read,"ax",%progbits
 156              		.align	2
 157              		.global	Pin_Button_Read
 158              		.code	16
 159              		.thumb_func
 160              		.type	Pin_Button_Read, %function
 161              	Pin_Button_Read:
 162              	.LFB2:
  79:.\Generated_Source\PSoC4/Pin_Button.c **** 
  80:.\Generated_Source\PSoC4/Pin_Button.c **** 
  81:.\Generated_Source\PSoC4/Pin_Button.c **** /*******************************************************************************
  82:.\Generated_Source\PSoC4/Pin_Button.c **** * Function Name: Pin_Button_Read
  83:.\Generated_Source\PSoC4/Pin_Button.c **** ********************************************************************************
  84:.\Generated_Source\PSoC4/Pin_Button.c **** *
  85:.\Generated_Source\PSoC4/Pin_Button.c **** * Summary:
  86:.\Generated_Source\PSoC4/Pin_Button.c **** *  Read the current value on the pins of the Digital Port in right justified 
  87:.\Generated_Source\PSoC4/Pin_Button.c **** *  form.
  88:.\Generated_Source\PSoC4/Pin_Button.c **** *
  89:.\Generated_Source\PSoC4/Pin_Button.c **** * Parameters:  
  90:.\Generated_Source\PSoC4/Pin_Button.c **** *  None 
  91:.\Generated_Source\PSoC4/Pin_Button.c **** *
  92:.\Generated_Source\PSoC4/Pin_Button.c **** * Return: 
  93:.\Generated_Source\PSoC4/Pin_Button.c **** *  Returns the current value of the Digital Port as a right justified number
  94:.\Generated_Source\PSoC4/Pin_Button.c **** *  
  95:.\Generated_Source\PSoC4/Pin_Button.c **** * Note:
  96:.\Generated_Source\PSoC4/Pin_Button.c **** *  Macro Pin_Button_ReadPS calls this function. 
  97:.\Generated_Source\PSoC4/Pin_Button.c **** *  
  98:.\Generated_Source\PSoC4/Pin_Button.c **** *******************************************************************************/
  99:.\Generated_Source\PSoC4/Pin_Button.c **** uint8 Pin_Button_Read(void) 
 100:.\Generated_Source\PSoC4/Pin_Button.c **** {
 163              		.loc 1 100 0
 164              		.cfi_startproc
 165 0000 80B5     		push	{r7, lr}
 166              	.LCFI6:
 167              		.cfi_def_cfa_offset 8
 168              		.cfi_offset 7, -8
 169              		.cfi_offset 14, -4
 170 0002 00AF     		add	r7, sp, #0
 171              	.LCFI7:
 172              		.cfi_def_cfa_register 7
 101:.\Generated_Source\PSoC4/Pin_Button.c ****     return (uint8)((Pin_Button_PS & Pin_Button_MASK) >> Pin_Button_SHIFT);
 173              		.loc 1 101 0
 174 0004 044B     		ldr	r3, .L9
 175 0006 1B68     		ldr	r3, [r3]
 176 0008 DAB2     		uxtb	r2, r3
 177 000a 0723     		mov	r3, #7
 178 000c 1340     		and	r3, r2
 179 000e DBB2     		uxtb	r3, r3
 102:.\Generated_Source\PSoC4/Pin_Button.c **** }
 180              		.loc 1 102 0
 181 0010 181C     		mov	r0, r3
 182 0012 BD46     		mov	sp, r7
 183              		@ sp needed for prologue
ARM GAS  C:\Users\trehans\AppData\Local\Temp\ccuhN6Hk.s 			page 6


 184 0014 80BD     		pop	{r7, pc}
 185              	.L10:
 186 0016 C046     		.align	2
 187              	.L9:
 188 0018 04020440 		.word	1074004484
 189              		.cfi_endproc
 190              	.LFE2:
 191              		.size	Pin_Button_Read, .-Pin_Button_Read
 192              		.section	.text.Pin_Button_ReadDataReg,"ax",%progbits
 193              		.align	2
 194              		.global	Pin_Button_ReadDataReg
 195              		.code	16
 196              		.thumb_func
 197              		.type	Pin_Button_ReadDataReg, %function
 198              	Pin_Button_ReadDataReg:
 199              	.LFB3:
 103:.\Generated_Source\PSoC4/Pin_Button.c **** 
 104:.\Generated_Source\PSoC4/Pin_Button.c **** 
 105:.\Generated_Source\PSoC4/Pin_Button.c **** /*******************************************************************************
 106:.\Generated_Source\PSoC4/Pin_Button.c **** * Function Name: Pin_Button_ReadDataReg
 107:.\Generated_Source\PSoC4/Pin_Button.c **** ********************************************************************************
 108:.\Generated_Source\PSoC4/Pin_Button.c **** *
 109:.\Generated_Source\PSoC4/Pin_Button.c **** * Summary:
 110:.\Generated_Source\PSoC4/Pin_Button.c **** *  Read the current value assigned to a Digital Port's data output register
 111:.\Generated_Source\PSoC4/Pin_Button.c **** *
 112:.\Generated_Source\PSoC4/Pin_Button.c **** * Parameters:  
 113:.\Generated_Source\PSoC4/Pin_Button.c **** *  None 
 114:.\Generated_Source\PSoC4/Pin_Button.c **** *
 115:.\Generated_Source\PSoC4/Pin_Button.c **** * Return: 
 116:.\Generated_Source\PSoC4/Pin_Button.c **** *  Returns the current value assigned to the Digital Port's data output register
 117:.\Generated_Source\PSoC4/Pin_Button.c **** *  
 118:.\Generated_Source\PSoC4/Pin_Button.c **** *******************************************************************************/
 119:.\Generated_Source\PSoC4/Pin_Button.c **** uint8 Pin_Button_ReadDataReg(void) 
 120:.\Generated_Source\PSoC4/Pin_Button.c **** {
 200              		.loc 1 120 0
 201              		.cfi_startproc
 202 0000 80B5     		push	{r7, lr}
 203              	.LCFI8:
 204              		.cfi_def_cfa_offset 8
 205              		.cfi_offset 7, -8
 206              		.cfi_offset 14, -4
 207 0002 00AF     		add	r7, sp, #0
 208              	.LCFI9:
 209              		.cfi_def_cfa_register 7
 121:.\Generated_Source\PSoC4/Pin_Button.c ****     return (uint8)((Pin_Button_DR & Pin_Button_MASK) >> Pin_Button_SHIFT);
 210              		.loc 1 121 0
 211 0004 044B     		ldr	r3, .L13
 212 0006 1B68     		ldr	r3, [r3]
 213 0008 DAB2     		uxtb	r2, r3
 214 000a 0723     		mov	r3, #7
 215 000c 1340     		and	r3, r2
 216 000e DBB2     		uxtb	r3, r3
 122:.\Generated_Source\PSoC4/Pin_Button.c **** }
 217              		.loc 1 122 0
 218 0010 181C     		mov	r0, r3
 219 0012 BD46     		mov	sp, r7
 220              		@ sp needed for prologue
ARM GAS  C:\Users\trehans\AppData\Local\Temp\ccuhN6Hk.s 			page 7


 221 0014 80BD     		pop	{r7, pc}
 222              	.L14:
 223 0016 C046     		.align	2
 224              	.L13:
 225 0018 00020440 		.word	1074004480
 226              		.cfi_endproc
 227              	.LFE3:
 228              		.size	Pin_Button_ReadDataReg, .-Pin_Button_ReadDataReg
 229              		.section	.text.Pin_Button_ClearInterrupt,"ax",%progbits
 230              		.align	2
 231              		.global	Pin_Button_ClearInterrupt
 232              		.code	16
 233              		.thumb_func
 234              		.type	Pin_Button_ClearInterrupt, %function
 235              	Pin_Button_ClearInterrupt:
 236              	.LFB4:
 123:.\Generated_Source\PSoC4/Pin_Button.c **** 
 124:.\Generated_Source\PSoC4/Pin_Button.c **** 
 125:.\Generated_Source\PSoC4/Pin_Button.c **** /* If Interrupts Are Enabled for this Pins component */ 
 126:.\Generated_Source\PSoC4/Pin_Button.c **** #if defined(Pin_Button_INTSTAT) 
 127:.\Generated_Source\PSoC4/Pin_Button.c **** 
 128:.\Generated_Source\PSoC4/Pin_Button.c ****     /*******************************************************************************
 129:.\Generated_Source\PSoC4/Pin_Button.c ****     * Function Name: Pin_Button_ClearInterrupt
 130:.\Generated_Source\PSoC4/Pin_Button.c ****     ********************************************************************************
 131:.\Generated_Source\PSoC4/Pin_Button.c ****     *
 132:.\Generated_Source\PSoC4/Pin_Button.c ****     * Summary:
 133:.\Generated_Source\PSoC4/Pin_Button.c ****     *  Clears any active interrupts attached to port and returns the value of the 
 134:.\Generated_Source\PSoC4/Pin_Button.c ****     *  interrupt status register.
 135:.\Generated_Source\PSoC4/Pin_Button.c ****     *
 136:.\Generated_Source\PSoC4/Pin_Button.c ****     * Parameters:  
 137:.\Generated_Source\PSoC4/Pin_Button.c ****     *  None 
 138:.\Generated_Source\PSoC4/Pin_Button.c ****     *
 139:.\Generated_Source\PSoC4/Pin_Button.c ****     * Return: 
 140:.\Generated_Source\PSoC4/Pin_Button.c ****     *  Returns the value of the interrupt status register
 141:.\Generated_Source\PSoC4/Pin_Button.c ****     *  
 142:.\Generated_Source\PSoC4/Pin_Button.c ****     *******************************************************************************/
 143:.\Generated_Source\PSoC4/Pin_Button.c ****     uint8 Pin_Button_ClearInterrupt(void) 
 144:.\Generated_Source\PSoC4/Pin_Button.c ****     {
 237              		.loc 1 144 0
 238              		.cfi_startproc
 239 0000 80B5     		push	{r7, lr}
 240              	.LCFI10:
 241              		.cfi_def_cfa_offset 8
 242              		.cfi_offset 7, -8
 243              		.cfi_offset 14, -4
 244 0002 82B0     		sub	sp, sp, #8
 245              	.LCFI11:
 246              		.cfi_def_cfa_offset 16
 247 0004 00AF     		add	r7, sp, #0
 248              	.LCFI12:
 249              		.cfi_def_cfa_register 7
 145:.\Generated_Source\PSoC4/Pin_Button.c **** 		uint8 maskedStatus = (uint8)(Pin_Button_INTSTAT & Pin_Button_MASK);
 250              		.loc 1 145 0
 251 0006 084B     		ldr	r3, .L17
 252 0008 1B68     		ldr	r3, [r3]
 253 000a D9B2     		uxtb	r1, r3
 254 000c FB1D     		add	r3, r7, #7
ARM GAS  C:\Users\trehans\AppData\Local\Temp\ccuhN6Hk.s 			page 8


 255 000e 0722     		mov	r2, #7
 256 0010 0A40     		and	r2, r1
 257 0012 1A70     		strb	r2, [r3]
 146:.\Generated_Source\PSoC4/Pin_Button.c **** 		Pin_Button_INTSTAT = maskedStatus;
 258              		.loc 1 146 0
 259 0014 044B     		ldr	r3, .L17
 260 0016 FA1D     		add	r2, r7, #7
 261 0018 1278     		ldrb	r2, [r2]
 262 001a 1A60     		str	r2, [r3]
 147:.\Generated_Source\PSoC4/Pin_Button.c ****         return maskedStatus >> Pin_Button_SHIFT;
 263              		.loc 1 147 0
 264 001c FB1D     		add	r3, r7, #7
 265 001e 1B78     		ldrb	r3, [r3]
 148:.\Generated_Source\PSoC4/Pin_Button.c ****     }
 266              		.loc 1 148 0
 267 0020 181C     		mov	r0, r3
 268 0022 BD46     		mov	sp, r7
 269 0024 02B0     		add	sp, sp, #8
 270              		@ sp needed for prologue
 271 0026 80BD     		pop	{r7, pc}
 272              	.L18:
 273              		.align	2
 274              	.L17:
 275 0028 10020440 		.word	1074004496
 276              		.cfi_endproc
 277              	.LFE4:
 278              		.size	Pin_Button_ClearInterrupt, .-Pin_Button_ClearInterrupt
 279              		.text
 280              	.Letext0:
 281              		.file 2 ".\\Generated_Source\\PSoC4\\cytypes.h"