ARM GAS  C:\Users\trehans\AppData\Local\Temp\cctEYhFI.s 			page 1


   1              		.cpu cortex-m0
   2              		.fpu softvfp
   3              		.eabi_attribute 20, 1
   4              		.eabi_attribute 21, 1
   5              		.eabi_attribute 23, 3
   6              		.eabi_attribute 24, 1
   7              		.eabi_attribute 25, 1
   8              		.eabi_attribute 26, 1
   9              		.eabi_attribute 30, 6
  10              		.eabi_attribute 34, 0
  11              		.eabi_attribute 18, 4
  12              		.code	16
  13              		.file	"SPI.c"
  14              		.text
  15              	.Ltext0:
  16              		.cfi_sections	.debug_frame
  17              		.global	SPI_initVar
  18              		.bss
  19              		.type	SPI_initVar, %object
  20              		.size	SPI_initVar, 1
  21              	SPI_initVar:
  22 0000 00       		.space	1
  23              		.comm	SPI_swStatusTx,1,1
  24              		.comm	SPI_swStatusRx,1,1
  25              		.section	.text.SPI_Init,"ax",%progbits
  26              		.align	2
  27              		.global	SPI_Init
  28              		.code	16
  29              		.thumb_func
  30              		.type	SPI_Init, %function
  31              	SPI_Init:
  32              	.LFB0:
  33              		.file 1 ".\\Generated_Source\\PSoC4\\SPI.c"
   1:.\Generated_Source\PSoC4/SPI.c **** /*******************************************************************************
   2:.\Generated_Source\PSoC4/SPI.c **** * File Name: SPI.c
   3:.\Generated_Source\PSoC4/SPI.c **** * Version 2.60
   4:.\Generated_Source\PSoC4/SPI.c **** *
   5:.\Generated_Source\PSoC4/SPI.c **** * Description:
   6:.\Generated_Source\PSoC4/SPI.c **** *  This file provides all API functionality of the SPI Slave component.
   7:.\Generated_Source\PSoC4/SPI.c **** *
   8:.\Generated_Source\PSoC4/SPI.c **** * Note:
   9:.\Generated_Source\PSoC4/SPI.c **** *  None.
  10:.\Generated_Source\PSoC4/SPI.c **** *
  11:.\Generated_Source\PSoC4/SPI.c **** ********************************************************************************
  12:.\Generated_Source\PSoC4/SPI.c **** * Copyright 2008-2013, Cypress Semiconductor Corporation.  All rights reserved.
  13:.\Generated_Source\PSoC4/SPI.c **** * You may use this file only in accordance with the license, terms, conditions,
  14:.\Generated_Source\PSoC4/SPI.c **** * disclaimers, and limitations in the end user license agreement accompanying
  15:.\Generated_Source\PSoC4/SPI.c **** * the software package with which this file was provided.
  16:.\Generated_Source\PSoC4/SPI.c **** *******************************************************************************/
  17:.\Generated_Source\PSoC4/SPI.c **** 
  18:.\Generated_Source\PSoC4/SPI.c **** #include "SPI_PVT.h"
  19:.\Generated_Source\PSoC4/SPI.c **** 
  20:.\Generated_Source\PSoC4/SPI.c **** #if (SPI_TX_SOFTWARE_BUF_ENABLED)
  21:.\Generated_Source\PSoC4/SPI.c **** 
  22:.\Generated_Source\PSoC4/SPI.c ****     volatile uint16 SPI_txBuffer[SPI_TX_BUFFER_SIZE] = {0u};
  23:.\Generated_Source\PSoC4/SPI.c ****     volatile uint8 SPI_txBufferRead;
  24:.\Generated_Source\PSoC4/SPI.c ****     volatile uint8 SPI_txBufferWrite;
ARM GAS  C:\Users\trehans\AppData\Local\Temp\cctEYhFI.s 			page 2


  25:.\Generated_Source\PSoC4/SPI.c ****     volatile uint8 SPI_txBufferFull;
  26:.\Generated_Source\PSoC4/SPI.c **** 
  27:.\Generated_Source\PSoC4/SPI.c **** #endif /* SPI_TX_SOFTWARE_BUF_ENABLED*/
  28:.\Generated_Source\PSoC4/SPI.c **** 
  29:.\Generated_Source\PSoC4/SPI.c **** #if (SPI_RX_SOFTWARE_BUF_ENABLED)
  30:.\Generated_Source\PSoC4/SPI.c **** 
  31:.\Generated_Source\PSoC4/SPI.c ****     volatile uint16 SPI_rxBuffer[SPI_RX_BUFFER_SIZE] = {0u};
  32:.\Generated_Source\PSoC4/SPI.c ****     volatile uint8 SPI_rxBufferRead;
  33:.\Generated_Source\PSoC4/SPI.c ****     volatile uint8 SPI_rxBufferWrite;
  34:.\Generated_Source\PSoC4/SPI.c ****     volatile uint8 SPI_rxBufferFull;
  35:.\Generated_Source\PSoC4/SPI.c **** 
  36:.\Generated_Source\PSoC4/SPI.c **** #endif /* SPI_RX_SOFTWARE_BUF_ENABLED */
  37:.\Generated_Source\PSoC4/SPI.c **** 
  38:.\Generated_Source\PSoC4/SPI.c **** uint8 SPI_initVar = 0u;
  39:.\Generated_Source\PSoC4/SPI.c **** 
  40:.\Generated_Source\PSoC4/SPI.c **** volatile uint8 SPI_swStatusTx;
  41:.\Generated_Source\PSoC4/SPI.c **** volatile uint8 SPI_swStatusRx;
  42:.\Generated_Source\PSoC4/SPI.c **** 
  43:.\Generated_Source\PSoC4/SPI.c **** 
  44:.\Generated_Source\PSoC4/SPI.c **** /*******************************************************************************
  45:.\Generated_Source\PSoC4/SPI.c **** * Function Name: SPI_Init
  46:.\Generated_Source\PSoC4/SPI.c **** ********************************************************************************
  47:.\Generated_Source\PSoC4/SPI.c **** *
  48:.\Generated_Source\PSoC4/SPI.c **** * Summary:
  49:.\Generated_Source\PSoC4/SPI.c **** *  Inits/Restores default SPIS configuration provided with customizer.
  50:.\Generated_Source\PSoC4/SPI.c **** *
  51:.\Generated_Source\PSoC4/SPI.c **** * Parameters:
  52:.\Generated_Source\PSoC4/SPI.c **** *  None.
  53:.\Generated_Source\PSoC4/SPI.c **** *
  54:.\Generated_Source\PSoC4/SPI.c **** * Return:
  55:.\Generated_Source\PSoC4/SPI.c **** *  None.
  56:.\Generated_Source\PSoC4/SPI.c **** *
  57:.\Generated_Source\PSoC4/SPI.c **** * Side Effects:
  58:.\Generated_Source\PSoC4/SPI.c **** *  When this function is called it initializes all of the necessary parameters
  59:.\Generated_Source\PSoC4/SPI.c **** *  for execution. i.e. setting the initial interrupt mask, configuring the
  60:.\Generated_Source\PSoC4/SPI.c **** *  interrupt service routine, configuring the bit-counter parameters and
  61:.\Generated_Source\PSoC4/SPI.c **** *  clearing the FIFO and Status Register.
  62:.\Generated_Source\PSoC4/SPI.c **** *
  63:.\Generated_Source\PSoC4/SPI.c **** * Reentrant:
  64:.\Generated_Source\PSoC4/SPI.c **** *  No.
  65:.\Generated_Source\PSoC4/SPI.c **** *
  66:.\Generated_Source\PSoC4/SPI.c **** *******************************************************************************/
  67:.\Generated_Source\PSoC4/SPI.c **** void SPI_Init(void) 
  68:.\Generated_Source\PSoC4/SPI.c **** {
  34              		.loc 1 68 0
  35              		.cfi_startproc
  36 0000 80B5     		push	{r7, lr}
  37              	.LCFI0:
  38              		.cfi_def_cfa_offset 8
  39              		.cfi_offset 7, -8
  40              		.cfi_offset 14, -4
  41 0002 00AF     		add	r7, sp, #0
  42              	.LCFI1:
  43              		.cfi_def_cfa_register 7
  69:.\Generated_Source\PSoC4/SPI.c ****     /*Initialize the Bit counter */
  70:.\Generated_Source\PSoC4/SPI.c ****     SPI_COUNTER_PERIOD_REG = SPI_BITCTR_INIT;
  44              		.loc 1 70 0
ARM GAS  C:\Users\trehans\AppData\Local\Temp\cctEYhFI.s 			page 3


  45 0004 084B     		ldr	r3, .L2
  46 0006 0F22     		mov	r2, #15
  47 0008 1A70     		strb	r2, [r3]
  71:.\Generated_Source\PSoC4/SPI.c **** 
  72:.\Generated_Source\PSoC4/SPI.c ****     /* ISR initialization */
  73:.\Generated_Source\PSoC4/SPI.c ****     #if(SPI_INTERNAL_TX_INT_ENABLED)
  74:.\Generated_Source\PSoC4/SPI.c **** 
  75:.\Generated_Source\PSoC4/SPI.c ****         CyIntDisable(SPI_TX_ISR_NUMBER);
  76:.\Generated_Source\PSoC4/SPI.c **** 
  77:.\Generated_Source\PSoC4/SPI.c ****         /* Set the ISR to point to the SPI_isr Interrupt. */
  78:.\Generated_Source\PSoC4/SPI.c ****         (void)CyIntSetVector(SPI_TX_ISR_NUMBER, &SPI_TX_ISR);
  79:.\Generated_Source\PSoC4/SPI.c **** 
  80:.\Generated_Source\PSoC4/SPI.c ****         /* Set the priority. */
  81:.\Generated_Source\PSoC4/SPI.c ****         CyIntSetPriority(SPI_TX_ISR_NUMBER, SPI_TX_ISR_PRIORITY);
  82:.\Generated_Source\PSoC4/SPI.c **** 
  83:.\Generated_Source\PSoC4/SPI.c ****     #endif /* SPI_INTERNAL_TX_INT_ENABLED */
  84:.\Generated_Source\PSoC4/SPI.c **** 
  85:.\Generated_Source\PSoC4/SPI.c ****     #if(SPI_INTERNAL_RX_INT_ENABLED)
  86:.\Generated_Source\PSoC4/SPI.c **** 
  87:.\Generated_Source\PSoC4/SPI.c ****         CyIntDisable(SPI_RX_ISR_NUMBER);
  88:.\Generated_Source\PSoC4/SPI.c **** 
  89:.\Generated_Source\PSoC4/SPI.c ****         /* Set the ISR to point to the SPI_isr Interrupt. */
  90:.\Generated_Source\PSoC4/SPI.c ****         (void)CyIntSetVector(SPI_RX_ISR_NUMBER, &SPI_RX_ISR);
  91:.\Generated_Source\PSoC4/SPI.c **** 
  92:.\Generated_Source\PSoC4/SPI.c ****         /* Set the priority. */
  93:.\Generated_Source\PSoC4/SPI.c ****         CyIntSetPriority(SPI_RX_ISR_NUMBER, SPI_RX_ISR_PRIORITY);
  94:.\Generated_Source\PSoC4/SPI.c **** 
  95:.\Generated_Source\PSoC4/SPI.c ****     #endif /* SPI_INTERNAL_RX_INT_ENABLED */
  96:.\Generated_Source\PSoC4/SPI.c **** 
  97:.\Generated_Source\PSoC4/SPI.c ****     /* Clear any stray data from the RX and TX FIFO */
  98:.\Generated_Source\PSoC4/SPI.c ****     SPI_ClearFIFO();
  48              		.loc 1 98 0
  49 000a FFF7FEFF 		bl	SPI_ClearFIFO
  99:.\Generated_Source\PSoC4/SPI.c **** 
 100:.\Generated_Source\PSoC4/SPI.c ****     #if(SPI_RX_SOFTWARE_BUF_ENABLED)
 101:.\Generated_Source\PSoC4/SPI.c ****         SPI_txBufferFull = 0u;
 102:.\Generated_Source\PSoC4/SPI.c ****         SPI_rxBufferRead = 0u;
 103:.\Generated_Source\PSoC4/SPI.c ****         SPI_rxBufferWrite = 0u;
 104:.\Generated_Source\PSoC4/SPI.c ****     #endif /* SPI_RX_SOFTWARE_BUF_ENABLED */
 105:.\Generated_Source\PSoC4/SPI.c **** 
 106:.\Generated_Source\PSoC4/SPI.c ****     #if(SPI_TX_SOFTWARE_BUF_ENABLED)
 107:.\Generated_Source\PSoC4/SPI.c ****         SPI_txBufferFull = 0u;
 108:.\Generated_Source\PSoC4/SPI.c ****         SPI_txBufferRead = 0u;
 109:.\Generated_Source\PSoC4/SPI.c ****         SPI_txBufferWrite = 0u;
 110:.\Generated_Source\PSoC4/SPI.c ****     #endif /* SPI_TX_SOFTWARE_BUF_ENABLED */
 111:.\Generated_Source\PSoC4/SPI.c **** 
 112:.\Generated_Source\PSoC4/SPI.c ****     (void) SPI_ReadTxStatus(); /* Clear any pending status bits */
  50              		.loc 1 112 0
  51 000e FFF7FEFF 		bl	SPI_ReadTxStatus
 113:.\Generated_Source\PSoC4/SPI.c ****     (void) SPI_ReadRxStatus(); /* Clear any pending status bits */
  52              		.loc 1 113 0
  53 0012 FFF7FEFF 		bl	SPI_ReadRxStatus
 114:.\Generated_Source\PSoC4/SPI.c **** 
 115:.\Generated_Source\PSoC4/SPI.c **** 
 116:.\Generated_Source\PSoC4/SPI.c ****     /* Configure the Initial interrupt mask */
 117:.\Generated_Source\PSoC4/SPI.c ****     #if (SPI_TX_SOFTWARE_BUF_ENABLED)
 118:.\Generated_Source\PSoC4/SPI.c ****         SPI_TX_STATUS_MASK_REG  = (SPI_TX_INIT_INTERRUPTS_MASK &
ARM GAS  C:\Users\trehans\AppData\Local\Temp\cctEYhFI.s 			page 4


 119:.\Generated_Source\PSoC4/SPI.c ****                                                 (uint8)~SPI_STS_TX_FIFO_NOT_FULL);
 120:.\Generated_Source\PSoC4/SPI.c ****     #else /* SPI_TX_SOFTWARE_BUF_ENABLED */
 121:.\Generated_Source\PSoC4/SPI.c ****         SPI_TX_STATUS_MASK_REG  = SPI_TX_INIT_INTERRUPTS_MASK;
  54              		.loc 1 121 0
  55 0016 054B     		ldr	r3, .L2+4
  56 0018 0022     		mov	r2, #0
  57 001a 1A70     		strb	r2, [r3]
 122:.\Generated_Source\PSoC4/SPI.c ****     #endif /* SPI_TX_SOFTWARE_BUF_ENABLED */
 123:.\Generated_Source\PSoC4/SPI.c **** 
 124:.\Generated_Source\PSoC4/SPI.c ****     SPI_RX_STATUS_MASK_REG  = SPI_RX_INIT_INTERRUPTS_MASK;
  58              		.loc 1 124 0
  59 001c 044B     		ldr	r3, .L2+8
  60 001e 0022     		mov	r2, #0
  61 0020 1A70     		strb	r2, [r3]
 125:.\Generated_Source\PSoC4/SPI.c **** 
 126:.\Generated_Source\PSoC4/SPI.c **** }
  62              		.loc 1 126 0
  63 0022 BD46     		mov	sp, r7
  64              		@ sp needed for prologue
  65 0024 80BD     		pop	{r7, pc}
  66              	.L3:
  67 0026 C046     		.align	2
  68              	.L2:
  69 0028 82000F40 		.word	1074724994
  70 002c 80000F40 		.word	1074724992
  71 0030 83000F40 		.word	1074724995
  72              		.cfi_endproc
  73              	.LFE0:
  74              		.size	SPI_Init, .-SPI_Init
  75              		.section	.text.SPI_Enable,"ax",%progbits
  76              		.align	2
  77              		.global	SPI_Enable
  78              		.code	16
  79              		.thumb_func
  80              		.type	SPI_Enable, %function
  81              	SPI_Enable:
  82              	.LFB1:
 127:.\Generated_Source\PSoC4/SPI.c **** 
 128:.\Generated_Source\PSoC4/SPI.c **** 
 129:.\Generated_Source\PSoC4/SPI.c **** /*******************************************************************************
 130:.\Generated_Source\PSoC4/SPI.c **** * Function Name: SPI_Enable
 131:.\Generated_Source\PSoC4/SPI.c **** ********************************************************************************
 132:.\Generated_Source\PSoC4/SPI.c **** *
 133:.\Generated_Source\PSoC4/SPI.c **** * Summary:
 134:.\Generated_Source\PSoC4/SPI.c **** *  Enable SPIS component.
 135:.\Generated_Source\PSoC4/SPI.c **** *
 136:.\Generated_Source\PSoC4/SPI.c **** * Parameters:
 137:.\Generated_Source\PSoC4/SPI.c **** *  None.
 138:.\Generated_Source\PSoC4/SPI.c **** *
 139:.\Generated_Source\PSoC4/SPI.c **** * Return:
 140:.\Generated_Source\PSoC4/SPI.c **** *  None.
 141:.\Generated_Source\PSoC4/SPI.c **** *
 142:.\Generated_Source\PSoC4/SPI.c **** *******************************************************************************/
 143:.\Generated_Source\PSoC4/SPI.c **** void SPI_Enable(void) 
 144:.\Generated_Source\PSoC4/SPI.c **** {
  83              		.loc 1 144 0
  84              		.cfi_startproc
ARM GAS  C:\Users\trehans\AppData\Local\Temp\cctEYhFI.s 			page 5


  85 0000 90B5     		push	{r4, r7, lr}
  86              	.LCFI2:
  87              		.cfi_def_cfa_offset 12
  88              		.cfi_offset 4, -12
  89              		.cfi_offset 7, -8
  90              		.cfi_offset 14, -4
  91 0002 83B0     		sub	sp, sp, #12
  92              	.LCFI3:
  93              		.cfi_def_cfa_offset 24
  94 0004 00AF     		add	r7, sp, #0
  95              	.LCFI4:
  96              		.cfi_def_cfa_register 7
 145:.\Generated_Source\PSoC4/SPI.c ****     uint8 enableInterrupts;
 146:.\Generated_Source\PSoC4/SPI.c ****     enableInterrupts = CyEnterCriticalSection();
  97              		.loc 1 146 0
  98 0006 FC1D     		add	r4, r7, #7
  99 0008 FFF7FEFF 		bl	CyEnterCriticalSection
 100 000c 031C     		mov	r3, r0
 101 000e 2370     		strb	r3, [r4]
 147:.\Generated_Source\PSoC4/SPI.c **** 
 148:.\Generated_Source\PSoC4/SPI.c ****     SPI_COUNTER_CONTROL_REG |= SPI_CNTR_ENABLE;
 102              		.loc 1 148 0
 103 0010 0F4B     		ldr	r3, .L5
 104 0012 0F4A     		ldr	r2, .L5
 105 0014 1278     		ldrb	r2, [r2]
 106 0016 D2B2     		uxtb	r2, r2
 107 0018 2021     		mov	r1, #32
 108 001a 0A43     		orr	r2, r1
 109 001c D2B2     		uxtb	r2, r2
 110 001e 1A70     		strb	r2, [r3]
 149:.\Generated_Source\PSoC4/SPI.c ****     SPI_TX_STATUS_ACTL_REG |= SPI_INT_ENABLE;
 111              		.loc 1 149 0
 112 0020 0C4B     		ldr	r3, .L5+4
 113 0022 0C4A     		ldr	r2, .L5+4
 114 0024 1278     		ldrb	r2, [r2]
 115 0026 D2B2     		uxtb	r2, r2
 116 0028 1021     		mov	r1, #16
 117 002a 0A43     		orr	r2, r1
 118 002c D2B2     		uxtb	r2, r2
 119 002e 1A70     		strb	r2, [r3]
 150:.\Generated_Source\PSoC4/SPI.c ****     SPI_RX_STATUS_ACTL_REG |= SPI_INT_ENABLE;
 120              		.loc 1 150 0
 121 0030 094B     		ldr	r3, .L5+8
 122 0032 094A     		ldr	r2, .L5+8
 123 0034 1278     		ldrb	r2, [r2]
 124 0036 D2B2     		uxtb	r2, r2
 125 0038 1021     		mov	r1, #16
 126 003a 0A43     		orr	r2, r1
 127 003c D2B2     		uxtb	r2, r2
 128 003e 1A70     		strb	r2, [r3]
 151:.\Generated_Source\PSoC4/SPI.c **** 
 152:.\Generated_Source\PSoC4/SPI.c ****     CyExitCriticalSection(enableInterrupts);
 129              		.loc 1 152 0
 130 0040 FB1D     		add	r3, r7, #7
 131 0042 1B78     		ldrb	r3, [r3]
 132 0044 181C     		mov	r0, r3
 133 0046 FFF7FEFF 		bl	CyExitCriticalSection
ARM GAS  C:\Users\trehans\AppData\Local\Temp\cctEYhFI.s 			page 6


 153:.\Generated_Source\PSoC4/SPI.c **** 
 154:.\Generated_Source\PSoC4/SPI.c ****     #if(SPI_INTERNAL_TX_INT_ENABLED)
 155:.\Generated_Source\PSoC4/SPI.c ****         CyIntEnable(SPI_TX_ISR_NUMBER);
 156:.\Generated_Source\PSoC4/SPI.c ****     #endif /* SPI_INTERNAL_TX_INT_ENABLED */
 157:.\Generated_Source\PSoC4/SPI.c **** 
 158:.\Generated_Source\PSoC4/SPI.c ****     #if(SPI_INTERNAL_RX_INT_ENABLED)
 159:.\Generated_Source\PSoC4/SPI.c ****         CyIntEnable(SPI_RX_ISR_NUMBER);
 160:.\Generated_Source\PSoC4/SPI.c ****     #endif /* SPI_INTERNAL_RX_INT_ENABLED */
 161:.\Generated_Source\PSoC4/SPI.c **** }
 134              		.loc 1 161 0
 135 004a BD46     		mov	sp, r7
 136 004c 03B0     		add	sp, sp, #12
 137              		@ sp needed for prologue
 138 004e 90BD     		pop	{r4, r7, pc}
 139              	.L6:
 140              		.align	2
 141              	.L5:
 142 0050 92000F40 		.word	1074725010
 143 0054 90000F40 		.word	1074725008
 144 0058 93000F40 		.word	1074725011
 145              		.cfi_endproc
 146              	.LFE1:
 147              		.size	SPI_Enable, .-SPI_Enable
 148              		.section	.text.SPI_Start,"ax",%progbits
 149              		.align	2
 150              		.global	SPI_Start
 151              		.code	16
 152              		.thumb_func
 153              		.type	SPI_Start, %function
 154              	SPI_Start:
 155              	.LFB2:
 162:.\Generated_Source\PSoC4/SPI.c **** 
 163:.\Generated_Source\PSoC4/SPI.c **** 
 164:.\Generated_Source\PSoC4/SPI.c **** /*******************************************************************************
 165:.\Generated_Source\PSoC4/SPI.c **** * Function Name: SPI_Start
 166:.\Generated_Source\PSoC4/SPI.c **** ********************************************************************************
 167:.\Generated_Source\PSoC4/SPI.c **** *
 168:.\Generated_Source\PSoC4/SPI.c **** * Summary:
 169:.\Generated_Source\PSoC4/SPI.c **** *  Initialize and Enable the SPI Slave component.
 170:.\Generated_Source\PSoC4/SPI.c **** *
 171:.\Generated_Source\PSoC4/SPI.c **** * Parameters:
 172:.\Generated_Source\PSoC4/SPI.c **** *  None.
 173:.\Generated_Source\PSoC4/SPI.c **** *
 174:.\Generated_Source\PSoC4/SPI.c **** * Return:
 175:.\Generated_Source\PSoC4/SPI.c **** *  None.
 176:.\Generated_Source\PSoC4/SPI.c **** *
 177:.\Generated_Source\PSoC4/SPI.c **** * Global variables:
 178:.\Generated_Source\PSoC4/SPI.c **** *  SPI_initVar - used to check initial configuration, modified on
 179:.\Generated_Source\PSoC4/SPI.c **** *  first function call.
 180:.\Generated_Source\PSoC4/SPI.c **** *
 181:.\Generated_Source\PSoC4/SPI.c **** * Theory:
 182:.\Generated_Source\PSoC4/SPI.c **** *  Enable the clock input to enable operation.
 183:.\Generated_Source\PSoC4/SPI.c **** *
 184:.\Generated_Source\PSoC4/SPI.c **** * Reentrant:
 185:.\Generated_Source\PSoC4/SPI.c **** *  No.
 186:.\Generated_Source\PSoC4/SPI.c **** *
 187:.\Generated_Source\PSoC4/SPI.c **** *******************************************************************************/
ARM GAS  C:\Users\trehans\AppData\Local\Temp\cctEYhFI.s 			page 7


 188:.\Generated_Source\PSoC4/SPI.c **** void SPI_Start(void) 
 189:.\Generated_Source\PSoC4/SPI.c **** {
 156              		.loc 1 189 0
 157              		.cfi_startproc
 158 0000 80B5     		push	{r7, lr}
 159              	.LCFI5:
 160              		.cfi_def_cfa_offset 8
 161              		.cfi_offset 7, -8
 162              		.cfi_offset 14, -4
 163 0002 00AF     		add	r7, sp, #0
 164              	.LCFI6:
 165              		.cfi_def_cfa_register 7
 190:.\Generated_Source\PSoC4/SPI.c ****     if(SPI_initVar == 0u)
 166              		.loc 1 190 0
 167 0004 064B     		ldr	r3, .L9
 168 0006 1B78     		ldrb	r3, [r3]
 169 0008 002B     		cmp	r3, #0
 170 000a 04D1     		bne	.L8
 191:.\Generated_Source\PSoC4/SPI.c ****     {
 192:.\Generated_Source\PSoC4/SPI.c ****         SPI_Init();
 171              		.loc 1 192 0
 172 000c FFF7FEFF 		bl	SPI_Init
 193:.\Generated_Source\PSoC4/SPI.c ****         SPI_initVar = 1u;
 173              		.loc 1 193 0
 174 0010 034B     		ldr	r3, .L9
 175 0012 0122     		mov	r2, #1
 176 0014 1A70     		strb	r2, [r3]
 177              	.L8:
 194:.\Generated_Source\PSoC4/SPI.c ****     }
 195:.\Generated_Source\PSoC4/SPI.c **** 
 196:.\Generated_Source\PSoC4/SPI.c ****     SPI_Enable();
 178              		.loc 1 196 0
 179 0016 FFF7FEFF 		bl	SPI_Enable
 197:.\Generated_Source\PSoC4/SPI.c **** }
 180              		.loc 1 197 0
 181 001a BD46     		mov	sp, r7
 182              		@ sp needed for prologue
 183 001c 80BD     		pop	{r7, pc}
 184              	.L10:
 185 001e C046     		.align	2
 186              	.L9:
 187 0020 00000000 		.word	SPI_initVar
 188              		.cfi_endproc
 189              	.LFE2:
 190              		.size	SPI_Start, .-SPI_Start
 191              		.section	.text.SPI_Stop,"ax",%progbits
 192              		.align	2
 193              		.global	SPI_Stop
 194              		.code	16
 195              		.thumb_func
 196              		.type	SPI_Stop, %function
 197              	SPI_Stop:
 198              	.LFB3:
 198:.\Generated_Source\PSoC4/SPI.c **** 
 199:.\Generated_Source\PSoC4/SPI.c **** 
 200:.\Generated_Source\PSoC4/SPI.c **** /*******************************************************************************
 201:.\Generated_Source\PSoC4/SPI.c **** * Function Name: SPI_Stop
ARM GAS  C:\Users\trehans\AppData\Local\Temp\cctEYhFI.s 			page 8


 202:.\Generated_Source\PSoC4/SPI.c **** ********************************************************************************
 203:.\Generated_Source\PSoC4/SPI.c **** *
 204:.\Generated_Source\PSoC4/SPI.c **** * Summary:
 205:.\Generated_Source\PSoC4/SPI.c **** *  Disable the SPI Slave component.
 206:.\Generated_Source\PSoC4/SPI.c **** *
 207:.\Generated_Source\PSoC4/SPI.c **** * Parameters:
 208:.\Generated_Source\PSoC4/SPI.c **** *  None.
 209:.\Generated_Source\PSoC4/SPI.c **** *
 210:.\Generated_Source\PSoC4/SPI.c **** * Return:
 211:.\Generated_Source\PSoC4/SPI.c **** *  None.
 212:.\Generated_Source\PSoC4/SPI.c **** *
 213:.\Generated_Source\PSoC4/SPI.c **** * Theory:
 214:.\Generated_Source\PSoC4/SPI.c **** *  Disable the internal interrupt if one is used.
 215:.\Generated_Source\PSoC4/SPI.c **** *
 216:.\Generated_Source\PSoC4/SPI.c **** *******************************************************************************/
 217:.\Generated_Source\PSoC4/SPI.c **** void SPI_Stop(void) 
 218:.\Generated_Source\PSoC4/SPI.c **** {
 199              		.loc 1 218 0
 200              		.cfi_startproc
 201 0000 90B5     		push	{r4, r7, lr}
 202              	.LCFI7:
 203              		.cfi_def_cfa_offset 12
 204              		.cfi_offset 4, -12
 205              		.cfi_offset 7, -8
 206              		.cfi_offset 14, -4
 207 0002 83B0     		sub	sp, sp, #12
 208              	.LCFI8:
 209              		.cfi_def_cfa_offset 24
 210 0004 00AF     		add	r7, sp, #0
 211              	.LCFI9:
 212              		.cfi_def_cfa_register 7
 219:.\Generated_Source\PSoC4/SPI.c ****     uint8 enableInterrupts;
 220:.\Generated_Source\PSoC4/SPI.c ****     enableInterrupts = CyEnterCriticalSection();
 213              		.loc 1 220 0
 214 0006 FC1D     		add	r4, r7, #7
 215 0008 FFF7FEFF 		bl	CyEnterCriticalSection
 216 000c 031C     		mov	r3, r0
 217 000e 2370     		strb	r3, [r4]
 221:.\Generated_Source\PSoC4/SPI.c **** 
 222:.\Generated_Source\PSoC4/SPI.c ****     SPI_TX_STATUS_ACTL_REG &= (uint8)~SPI_INT_ENABLE;
 218              		.loc 1 222 0
 219 0010 0B4B     		ldr	r3, .L12
 220 0012 0B4A     		ldr	r2, .L12
 221 0014 1278     		ldrb	r2, [r2]
 222 0016 D2B2     		uxtb	r2, r2
 223 0018 1021     		mov	r1, #16
 224 001a 8A43     		bic	r2, r1
 225 001c D2B2     		uxtb	r2, r2
 226 001e 1A70     		strb	r2, [r3]
 223:.\Generated_Source\PSoC4/SPI.c ****     SPI_RX_STATUS_ACTL_REG &= (uint8)~SPI_INT_ENABLE;
 227              		.loc 1 223 0
 228 0020 084B     		ldr	r3, .L12+4
 229 0022 084A     		ldr	r2, .L12+4
 230 0024 1278     		ldrb	r2, [r2]
 231 0026 D2B2     		uxtb	r2, r2
 232 0028 1021     		mov	r1, #16
 233 002a 8A43     		bic	r2, r1
ARM GAS  C:\Users\trehans\AppData\Local\Temp\cctEYhFI.s 			page 9


 234 002c D2B2     		uxtb	r2, r2
 235 002e 1A70     		strb	r2, [r3]
 224:.\Generated_Source\PSoC4/SPI.c **** 
 225:.\Generated_Source\PSoC4/SPI.c ****     CyExitCriticalSection(enableInterrupts);
 236              		.loc 1 225 0
 237 0030 FB1D     		add	r3, r7, #7
 238 0032 1B78     		ldrb	r3, [r3]
 239 0034 181C     		mov	r0, r3
 240 0036 FFF7FEFF 		bl	CyExitCriticalSection
 226:.\Generated_Source\PSoC4/SPI.c **** 
 227:.\Generated_Source\PSoC4/SPI.c ****     #if(SPI_INTERNAL_TX_INT_ENABLED)
 228:.\Generated_Source\PSoC4/SPI.c ****         CyIntDisable(SPI_TX_ISR_NUMBER);
 229:.\Generated_Source\PSoC4/SPI.c ****     #endif /* SPI_INTERNAL_TX_INT_ENABLED */
 230:.\Generated_Source\PSoC4/SPI.c **** 
 231:.\Generated_Source\PSoC4/SPI.c ****     #if(SPI_INTERNAL_RX_INT_ENABLED)
 232:.\Generated_Source\PSoC4/SPI.c ****         CyIntDisable(SPI_RX_ISR_NUMBER);
 233:.\Generated_Source\PSoC4/SPI.c ****     #endif /* SPI_INTERNAL_RX_INT_ENABLED */
 234:.\Generated_Source\PSoC4/SPI.c **** }
 241              		.loc 1 234 0
 242 003a BD46     		mov	sp, r7
 243 003c 03B0     		add	sp, sp, #12
 244              		@ sp needed for prologue
 245 003e 90BD     		pop	{r4, r7, pc}
 246              	.L13:
 247              		.align	2
 248              	.L12:
 249 0040 90000F40 		.word	1074725008
 250 0044 93000F40 		.word	1074725011
 251              		.cfi_endproc
 252              	.LFE3:
 253              		.size	SPI_Stop, .-SPI_Stop
 254              		.section	.text.SPI_EnableTxInt,"ax",%progbits
 255              		.align	2
 256              		.global	SPI_EnableTxInt
 257              		.code	16
 258              		.thumb_func
 259              		.type	SPI_EnableTxInt, %function
 260              	SPI_EnableTxInt:
 261              	.LFB4:
 235:.\Generated_Source\PSoC4/SPI.c **** 
 236:.\Generated_Source\PSoC4/SPI.c **** 
 237:.\Generated_Source\PSoC4/SPI.c **** /*******************************************************************************
 238:.\Generated_Source\PSoC4/SPI.c **** * Function Name: SPI_EnableTxInt
 239:.\Generated_Source\PSoC4/SPI.c **** ********************************************************************************
 240:.\Generated_Source\PSoC4/SPI.c **** *
 241:.\Generated_Source\PSoC4/SPI.c **** * Summary:
 242:.\Generated_Source\PSoC4/SPI.c **** *  Enable internal Tx interrupt generation.
 243:.\Generated_Source\PSoC4/SPI.c **** *
 244:.\Generated_Source\PSoC4/SPI.c **** * Parameters:
 245:.\Generated_Source\PSoC4/SPI.c **** *  None.
 246:.\Generated_Source\PSoC4/SPI.c **** *
 247:.\Generated_Source\PSoC4/SPI.c **** * Return:
 248:.\Generated_Source\PSoC4/SPI.c **** *  None.
 249:.\Generated_Source\PSoC4/SPI.c **** *
 250:.\Generated_Source\PSoC4/SPI.c **** * Theory:
 251:.\Generated_Source\PSoC4/SPI.c **** *  Enable the internal Tx interrupt output -or- the interrupt component itself.
 252:.\Generated_Source\PSoC4/SPI.c **** *
ARM GAS  C:\Users\trehans\AppData\Local\Temp\cctEYhFI.s 			page 10


 253:.\Generated_Source\PSoC4/SPI.c **** *******************************************************************************/
 254:.\Generated_Source\PSoC4/SPI.c **** void SPI_EnableTxInt(void) 
 255:.\Generated_Source\PSoC4/SPI.c **** {
 262              		.loc 1 255 0
 263              		.cfi_startproc
 264 0000 80B5     		push	{r7, lr}
 265              	.LCFI10:
 266              		.cfi_def_cfa_offset 8
 267              		.cfi_offset 7, -8
 268              		.cfi_offset 14, -4
 269 0002 00AF     		add	r7, sp, #0
 270              	.LCFI11:
 271              		.cfi_def_cfa_register 7
 256:.\Generated_Source\PSoC4/SPI.c ****     #if(SPI_INTERNAL_TX_INT_ENABLED)
 257:.\Generated_Source\PSoC4/SPI.c ****         CyIntEnable(SPI_TX_ISR_NUMBER);
 258:.\Generated_Source\PSoC4/SPI.c ****     #endif /* SPI_INTERNAL_TX_INT_ENABLED */
 259:.\Generated_Source\PSoC4/SPI.c **** }
 272              		.loc 1 259 0
 273 0004 BD46     		mov	sp, r7
 274              		@ sp needed for prologue
 275 0006 80BD     		pop	{r7, pc}
 276              		.cfi_endproc
 277              	.LFE4:
 278              		.size	SPI_EnableTxInt, .-SPI_EnableTxInt
 279              		.section	.text.SPI_EnableRxInt,"ax",%progbits
 280              		.align	2
 281              		.global	SPI_EnableRxInt
 282              		.code	16
 283              		.thumb_func
 284              		.type	SPI_EnableRxInt, %function
 285              	SPI_EnableRxInt:
 286              	.LFB5:
 260:.\Generated_Source\PSoC4/SPI.c **** 
 261:.\Generated_Source\PSoC4/SPI.c **** 
 262:.\Generated_Source\PSoC4/SPI.c **** /*******************************************************************************
 263:.\Generated_Source\PSoC4/SPI.c **** * Function Name: SPI_EnableRxInt
 264:.\Generated_Source\PSoC4/SPI.c **** ********************************************************************************
 265:.\Generated_Source\PSoC4/SPI.c **** *
 266:.\Generated_Source\PSoC4/SPI.c **** * Summary:
 267:.\Generated_Source\PSoC4/SPI.c **** *  Enable internal Rx interrupt generation.
 268:.\Generated_Source\PSoC4/SPI.c **** *
 269:.\Generated_Source\PSoC4/SPI.c **** * Parameters:
 270:.\Generated_Source\PSoC4/SPI.c **** *  None.
 271:.\Generated_Source\PSoC4/SPI.c **** *
 272:.\Generated_Source\PSoC4/SPI.c **** * Return:
 273:.\Generated_Source\PSoC4/SPI.c **** *  None.
 274:.\Generated_Source\PSoC4/SPI.c **** *
 275:.\Generated_Source\PSoC4/SPI.c **** * Theory:
 276:.\Generated_Source\PSoC4/SPI.c **** *  Enable the internal Rx interrupt output -or- the interrupt component itself.
 277:.\Generated_Source\PSoC4/SPI.c **** *
 278:.\Generated_Source\PSoC4/SPI.c **** *******************************************************************************/
 279:.\Generated_Source\PSoC4/SPI.c **** void SPI_EnableRxInt(void) 
 280:.\Generated_Source\PSoC4/SPI.c **** {
 287              		.loc 1 280 0
 288              		.cfi_startproc
 289 0000 80B5     		push	{r7, lr}
 290              	.LCFI12:
ARM GAS  C:\Users\trehans\AppData\Local\Temp\cctEYhFI.s 			page 11


 291              		.cfi_def_cfa_offset 8
 292              		.cfi_offset 7, -8
 293              		.cfi_offset 14, -4
 294 0002 00AF     		add	r7, sp, #0
 295              	.LCFI13:
 296              		.cfi_def_cfa_register 7
 281:.\Generated_Source\PSoC4/SPI.c ****     #if(SPI_INTERNAL_RX_INT_ENABLED)
 282:.\Generated_Source\PSoC4/SPI.c ****         CyIntEnable(SPI_RX_ISR_NUMBER);
 283:.\Generated_Source\PSoC4/SPI.c ****     #endif /* SPI_INTERNAL_RX_INT_ENABLED */
 284:.\Generated_Source\PSoC4/SPI.c **** }
 297              		.loc 1 284 0
 298 0004 BD46     		mov	sp, r7
 299              		@ sp needed for prologue
 300 0006 80BD     		pop	{r7, pc}
 301              		.cfi_endproc
 302              	.LFE5:
 303              		.size	SPI_EnableRxInt, .-SPI_EnableRxInt
 304              		.section	.text.SPI_DisableTxInt,"ax",%progbits
 305              		.align	2
 306              		.global	SPI_DisableTxInt
 307              		.code	16
 308              		.thumb_func
 309              		.type	SPI_DisableTxInt, %function
 310              	SPI_DisableTxInt:
 311              	.LFB6:
 285:.\Generated_Source\PSoC4/SPI.c **** 
 286:.\Generated_Source\PSoC4/SPI.c **** 
 287:.\Generated_Source\PSoC4/SPI.c **** /*******************************************************************************
 288:.\Generated_Source\PSoC4/SPI.c **** * Function Name: SPI_DisableTxInt
 289:.\Generated_Source\PSoC4/SPI.c **** ********************************************************************************
 290:.\Generated_Source\PSoC4/SPI.c **** *
 291:.\Generated_Source\PSoC4/SPI.c **** * Summary:
 292:.\Generated_Source\PSoC4/SPI.c **** *  Disable internal Tx interrupt generation.
 293:.\Generated_Source\PSoC4/SPI.c **** *
 294:.\Generated_Source\PSoC4/SPI.c **** * Parameters:
 295:.\Generated_Source\PSoC4/SPI.c **** *  None.
 296:.\Generated_Source\PSoC4/SPI.c **** *
 297:.\Generated_Source\PSoC4/SPI.c **** * Return:
 298:.\Generated_Source\PSoC4/SPI.c **** *  None.
 299:.\Generated_Source\PSoC4/SPI.c **** *
 300:.\Generated_Source\PSoC4/SPI.c **** * Theory:
 301:.\Generated_Source\PSoC4/SPI.c **** *  Disable the internal Tx interrupt output -or- the interrupt component itself.
 302:.\Generated_Source\PSoC4/SPI.c **** *
 303:.\Generated_Source\PSoC4/SPI.c **** *******************************************************************************/
 304:.\Generated_Source\PSoC4/SPI.c **** void SPI_DisableTxInt(void) 
 305:.\Generated_Source\PSoC4/SPI.c **** {
 312              		.loc 1 305 0
 313              		.cfi_startproc
 314 0000 80B5     		push	{r7, lr}
 315              	.LCFI14:
 316              		.cfi_def_cfa_offset 8
 317              		.cfi_offset 7, -8
 318              		.cfi_offset 14, -4
 319 0002 00AF     		add	r7, sp, #0
 320              	.LCFI15:
 321              		.cfi_def_cfa_register 7
 306:.\Generated_Source\PSoC4/SPI.c ****     #if(SPI_INTERNAL_TX_INT_ENABLED)
ARM GAS  C:\Users\trehans\AppData\Local\Temp\cctEYhFI.s 			page 12


 307:.\Generated_Source\PSoC4/SPI.c ****         CyIntDisable(SPI_TX_ISR_NUMBER);
 308:.\Generated_Source\PSoC4/SPI.c ****     #endif /* SPI_INTERNAL_TX_INT_ENABLED */
 309:.\Generated_Source\PSoC4/SPI.c **** }
 322              		.loc 1 309 0
 323 0004 BD46     		mov	sp, r7
 324              		@ sp needed for prologue
 325 0006 80BD     		pop	{r7, pc}
 326              		.cfi_endproc
 327              	.LFE6:
 328              		.size	SPI_DisableTxInt, .-SPI_DisableTxInt
 329              		.section	.text.SPI_DisableRxInt,"ax",%progbits
 330              		.align	2
 331              		.global	SPI_DisableRxInt
 332              		.code	16
 333              		.thumb_func
 334              		.type	SPI_DisableRxInt, %function
 335              	SPI_DisableRxInt:
 336              	.LFB7:
 310:.\Generated_Source\PSoC4/SPI.c **** 
 311:.\Generated_Source\PSoC4/SPI.c **** 
 312:.\Generated_Source\PSoC4/SPI.c **** /*******************************************************************************
 313:.\Generated_Source\PSoC4/SPI.c **** * Function Name: SPI_DisableRxInt
 314:.\Generated_Source\PSoC4/SPI.c **** ********************************************************************************
 315:.\Generated_Source\PSoC4/SPI.c **** *
 316:.\Generated_Source\PSoC4/SPI.c **** * Summary:
 317:.\Generated_Source\PSoC4/SPI.c **** *  Disable internal Rx interrupt generation.
 318:.\Generated_Source\PSoC4/SPI.c **** *
 319:.\Generated_Source\PSoC4/SPI.c **** * Parameters:
 320:.\Generated_Source\PSoC4/SPI.c **** *  None.
 321:.\Generated_Source\PSoC4/SPI.c **** *
 322:.\Generated_Source\PSoC4/SPI.c **** * Return:
 323:.\Generated_Source\PSoC4/SPI.c **** *  None.
 324:.\Generated_Source\PSoC4/SPI.c **** *
 325:.\Generated_Source\PSoC4/SPI.c **** * Theory:
 326:.\Generated_Source\PSoC4/SPI.c **** *  Disable the internal Rx interrupt output -or- the interrupt component itself.
 327:.\Generated_Source\PSoC4/SPI.c **** *
 328:.\Generated_Source\PSoC4/SPI.c **** *******************************************************************************/
 329:.\Generated_Source\PSoC4/SPI.c **** void SPI_DisableRxInt(void) 
 330:.\Generated_Source\PSoC4/SPI.c **** {
 337              		.loc 1 330 0
 338              		.cfi_startproc
 339 0000 80B5     		push	{r7, lr}
 340              	.LCFI16:
 341              		.cfi_def_cfa_offset 8
 342              		.cfi_offset 7, -8
 343              		.cfi_offset 14, -4
 344 0002 00AF     		add	r7, sp, #0
 345              	.LCFI17:
 346              		.cfi_def_cfa_register 7
 331:.\Generated_Source\PSoC4/SPI.c ****     #if(SPI_INTERNAL_RX_INT_ENABLED)
 332:.\Generated_Source\PSoC4/SPI.c ****         CyIntDisable(SPI_RX_ISR_NUMBER);
 333:.\Generated_Source\PSoC4/SPI.c ****     #endif /* SPI_INTERNAL_RX_INT_ENABLED */
 334:.\Generated_Source\PSoC4/SPI.c **** }
 347              		.loc 1 334 0
 348 0004 BD46     		mov	sp, r7
 349              		@ sp needed for prologue
 350 0006 80BD     		pop	{r7, pc}
ARM GAS  C:\Users\trehans\AppData\Local\Temp\cctEYhFI.s 			page 13


 351              		.cfi_endproc
 352              	.LFE7:
 353              		.size	SPI_DisableRxInt, .-SPI_DisableRxInt
 354              		.section	.text.SPI_SetTxInterruptMode,"ax",%progbits
 355              		.align	2
 356              		.global	SPI_SetTxInterruptMode
 357              		.code	16
 358              		.thumb_func
 359              		.type	SPI_SetTxInterruptMode, %function
 360              	SPI_SetTxInterruptMode:
 361              	.LFB8:
 335:.\Generated_Source\PSoC4/SPI.c **** 
 336:.\Generated_Source\PSoC4/SPI.c **** 
 337:.\Generated_Source\PSoC4/SPI.c **** /*******************************************************************************
 338:.\Generated_Source\PSoC4/SPI.c **** * Function Name: SPI_SetTxInterruptMode
 339:.\Generated_Source\PSoC4/SPI.c **** ********************************************************************************
 340:.\Generated_Source\PSoC4/SPI.c **** *
 341:.\Generated_Source\PSoC4/SPI.c **** * Summary:
 342:.\Generated_Source\PSoC4/SPI.c **** *  Configure which status bits trigger an interrupt event.
 343:.\Generated_Source\PSoC4/SPI.c **** *
 344:.\Generated_Source\PSoC4/SPI.c **** * Parameters:
 345:.\Generated_Source\PSoC4/SPI.c **** *  intSrc: An or'd combination of the desired status bit masks (defined in the
 346:.\Generated_Source\PSoC4/SPI.c **** *  header file).
 347:.\Generated_Source\PSoC4/SPI.c **** *
 348:.\Generated_Source\PSoC4/SPI.c **** * Return:
 349:.\Generated_Source\PSoC4/SPI.c **** *  None.
 350:.\Generated_Source\PSoC4/SPI.c **** *
 351:.\Generated_Source\PSoC4/SPI.c **** * Theory:
 352:.\Generated_Source\PSoC4/SPI.c **** *  Enables the output of specific status bits to the interrupt controller.
 353:.\Generated_Source\PSoC4/SPI.c **** *
 354:.\Generated_Source\PSoC4/SPI.c **** *******************************************************************************/
 355:.\Generated_Source\PSoC4/SPI.c **** void SPI_SetTxInterruptMode(uint8 intSrc) 
 356:.\Generated_Source\PSoC4/SPI.c **** {
 362              		.loc 1 356 0
 363              		.cfi_startproc
 364 0000 80B5     		push	{r7, lr}
 365              	.LCFI18:
 366              		.cfi_def_cfa_offset 8
 367              		.cfi_offset 7, -8
 368              		.cfi_offset 14, -4
 369 0002 82B0     		sub	sp, sp, #8
 370              	.LCFI19:
 371              		.cfi_def_cfa_offset 16
 372 0004 00AF     		add	r7, sp, #0
 373              	.LCFI20:
 374              		.cfi_def_cfa_register 7
 375 0006 021C     		mov	r2, r0
 376 0008 FB1D     		add	r3, r7, #7
 377 000a 1A70     		strb	r2, [r3]
 357:.\Generated_Source\PSoC4/SPI.c ****     SPI_TX_STATUS_MASK_REG  = intSrc;
 378              		.loc 1 357 0
 379 000c 034B     		ldr	r3, .L19
 380 000e FA1D     		add	r2, r7, #7
 381 0010 1278     		ldrb	r2, [r2]
 382 0012 1A70     		strb	r2, [r3]
 358:.\Generated_Source\PSoC4/SPI.c **** }
 383              		.loc 1 358 0
ARM GAS  C:\Users\trehans\AppData\Local\Temp\cctEYhFI.s 			page 14


 384 0014 BD46     		mov	sp, r7
 385 0016 02B0     		add	sp, sp, #8
 386              		@ sp needed for prologue
 387 0018 80BD     		pop	{r7, pc}
 388              	.L20:
 389 001a C046     		.align	2
 390              	.L19:
 391 001c 80000F40 		.word	1074724992
 392              		.cfi_endproc
 393              	.LFE8:
 394              		.size	SPI_SetTxInterruptMode, .-SPI_SetTxInterruptMode
 395              		.section	.text.SPI_SetRxInterruptMode,"ax",%progbits
 396              		.align	2
 397              		.global	SPI_SetRxInterruptMode
 398              		.code	16
 399              		.thumb_func
 400              		.type	SPI_SetRxInterruptMode, %function
 401              	SPI_SetRxInterruptMode:
 402              	.LFB9:
 359:.\Generated_Source\PSoC4/SPI.c **** 
 360:.\Generated_Source\PSoC4/SPI.c **** 
 361:.\Generated_Source\PSoC4/SPI.c **** /*******************************************************************************
 362:.\Generated_Source\PSoC4/SPI.c **** * Function Name: SPI_SetRxInterruptMode
 363:.\Generated_Source\PSoC4/SPI.c **** ********************************************************************************
 364:.\Generated_Source\PSoC4/SPI.c **** *
 365:.\Generated_Source\PSoC4/SPI.c **** * Summary:
 366:.\Generated_Source\PSoC4/SPI.c **** *  Configure which status bits trigger an interrupt event.
 367:.\Generated_Source\PSoC4/SPI.c **** *
 368:.\Generated_Source\PSoC4/SPI.c **** * Parameters:
 369:.\Generated_Source\PSoC4/SPI.c **** *  intSrc: An or'd combination of the desired status bit masks (defined in the
 370:.\Generated_Source\PSoC4/SPI.c **** *  header file).
 371:.\Generated_Source\PSoC4/SPI.c **** *
 372:.\Generated_Source\PSoC4/SPI.c **** * Return:
 373:.\Generated_Source\PSoC4/SPI.c **** *  None.
 374:.\Generated_Source\PSoC4/SPI.c **** *
 375:.\Generated_Source\PSoC4/SPI.c **** * Theory:
 376:.\Generated_Source\PSoC4/SPI.c **** *  Enables the output of specific status bits to the interrupt controller.
 377:.\Generated_Source\PSoC4/SPI.c **** *
 378:.\Generated_Source\PSoC4/SPI.c **** *******************************************************************************/
 379:.\Generated_Source\PSoC4/SPI.c **** void SPI_SetRxInterruptMode(uint8 intSrc) 
 380:.\Generated_Source\PSoC4/SPI.c **** {
 403              		.loc 1 380 0
 404              		.cfi_startproc
 405 0000 80B5     		push	{r7, lr}
 406              	.LCFI21:
 407              		.cfi_def_cfa_offset 8
 408              		.cfi_offset 7, -8
 409              		.cfi_offset 14, -4
 410 0002 82B0     		sub	sp, sp, #8
 411              	.LCFI22:
 412              		.cfi_def_cfa_offset 16
 413 0004 00AF     		add	r7, sp, #0
 414              	.LCFI23:
 415              		.cfi_def_cfa_register 7
 416 0006 021C     		mov	r2, r0
 417 0008 FB1D     		add	r3, r7, #7
 418 000a 1A70     		strb	r2, [r3]
ARM GAS  C:\Users\trehans\AppData\Local\Temp\cctEYhFI.s 			page 15


 381:.\Generated_Source\PSoC4/SPI.c ****     SPI_RX_STATUS_MASK_REG  = intSrc;
 419              		.loc 1 381 0
 420 000c 034B     		ldr	r3, .L22
 421 000e FA1D     		add	r2, r7, #7
 422 0010 1278     		ldrb	r2, [r2]
 423 0012 1A70     		strb	r2, [r3]
 382:.\Generated_Source\PSoC4/SPI.c **** }
 424              		.loc 1 382 0
 425 0014 BD46     		mov	sp, r7
 426 0016 02B0     		add	sp, sp, #8
 427              		@ sp needed for prologue
 428 0018 80BD     		pop	{r7, pc}
 429              	.L23:
 430 001a C046     		.align	2
 431              	.L22:
 432 001c 83000F40 		.word	1074724995
 433              		.cfi_endproc
 434              	.LFE9:
 435              		.size	SPI_SetRxInterruptMode, .-SPI_SetRxInterruptMode
 436              		.section	.text.SPI_ReadTxStatus,"ax",%progbits
 437              		.align	2
 438              		.global	SPI_ReadTxStatus
 439              		.code	16
 440              		.thumb_func
 441              		.type	SPI_ReadTxStatus, %function
 442              	SPI_ReadTxStatus:
 443              	.LFB10:
 383:.\Generated_Source\PSoC4/SPI.c **** 
 384:.\Generated_Source\PSoC4/SPI.c **** 
 385:.\Generated_Source\PSoC4/SPI.c **** /*******************************************************************************
 386:.\Generated_Source\PSoC4/SPI.c **** * Function Name: SPI_ReadTxStatus
 387:.\Generated_Source\PSoC4/SPI.c **** ********************************************************************************
 388:.\Generated_Source\PSoC4/SPI.c **** *
 389:.\Generated_Source\PSoC4/SPI.c **** * Summary:
 390:.\Generated_Source\PSoC4/SPI.c **** *  Read the Tx status register for the component.
 391:.\Generated_Source\PSoC4/SPI.c **** *
 392:.\Generated_Source\PSoC4/SPI.c **** * Parameters:
 393:.\Generated_Source\PSoC4/SPI.c **** *  None.
 394:.\Generated_Source\PSoC4/SPI.c **** *
 395:.\Generated_Source\PSoC4/SPI.c **** * Return:
 396:.\Generated_Source\PSoC4/SPI.c **** *  Contents of the Tx status register.
 397:.\Generated_Source\PSoC4/SPI.c **** *
 398:.\Generated_Source\PSoC4/SPI.c **** * Global variables:
 399:.\Generated_Source\PSoC4/SPI.c **** *  SPI_swStatusTx - used to store in software status register,
 400:.\Generated_Source\PSoC4/SPI.c **** *  modified every function call - resets to zero.
 401:.\Generated_Source\PSoC4/SPI.c **** *
 402:.\Generated_Source\PSoC4/SPI.c **** * Theory:
 403:.\Generated_Source\PSoC4/SPI.c **** *  Allows the user and the API to read the Tx status register for error
 404:.\Generated_Source\PSoC4/SPI.c **** *  detection and flow control.
 405:.\Generated_Source\PSoC4/SPI.c **** *
 406:.\Generated_Source\PSoC4/SPI.c **** * Side Effects:
 407:.\Generated_Source\PSoC4/SPI.c **** *  Clear Tx status register of the component.
 408:.\Generated_Source\PSoC4/SPI.c **** *
 409:.\Generated_Source\PSoC4/SPI.c **** * Reentrant:
 410:.\Generated_Source\PSoC4/SPI.c **** *  No.
 411:.\Generated_Source\PSoC4/SPI.c **** *
 412:.\Generated_Source\PSoC4/SPI.c **** *******************************************************************************/
ARM GAS  C:\Users\trehans\AppData\Local\Temp\cctEYhFI.s 			page 16


 413:.\Generated_Source\PSoC4/SPI.c **** uint8 SPI_ReadTxStatus(void) 
 414:.\Generated_Source\PSoC4/SPI.c **** {
 444              		.loc 1 414 0
 445              		.cfi_startproc
 446 0000 80B5     		push	{r7, lr}
 447              	.LCFI24:
 448              		.cfi_def_cfa_offset 8
 449              		.cfi_offset 7, -8
 450              		.cfi_offset 14, -4
 451 0002 82B0     		sub	sp, sp, #8
 452              	.LCFI25:
 453              		.cfi_def_cfa_offset 16
 454 0004 00AF     		add	r7, sp, #0
 455              	.LCFI26:
 456              		.cfi_def_cfa_register 7
 415:.\Generated_Source\PSoC4/SPI.c ****     uint8 tmpStatus;
 416:.\Generated_Source\PSoC4/SPI.c **** 
 417:.\Generated_Source\PSoC4/SPI.c ****     #if (SPI_TX_SOFTWARE_BUF_ENABLED)
 418:.\Generated_Source\PSoC4/SPI.c **** 
 419:.\Generated_Source\PSoC4/SPI.c ****         SPI_DisableTxInt();
 420:.\Generated_Source\PSoC4/SPI.c **** 
 421:.\Generated_Source\PSoC4/SPI.c ****         tmpStatus = SPI_GET_STATUS_TX(SPI_swStatusTx);
 422:.\Generated_Source\PSoC4/SPI.c **** 
 423:.\Generated_Source\PSoC4/SPI.c ****         SPI_swStatusTx = 0u;
 424:.\Generated_Source\PSoC4/SPI.c **** 
 425:.\Generated_Source\PSoC4/SPI.c ****         /* Enable Interrupts */
 426:.\Generated_Source\PSoC4/SPI.c ****         SPI_EnableTxInt();
 427:.\Generated_Source\PSoC4/SPI.c **** 
 428:.\Generated_Source\PSoC4/SPI.c ****     #else /* !SPI_TX_SOFTWARE_BUF_ENABLED */
 429:.\Generated_Source\PSoC4/SPI.c **** 
 430:.\Generated_Source\PSoC4/SPI.c ****         tmpStatus = SPI_TX_STATUS_REG;
 457              		.loc 1 430 0
 458 0006 054A     		ldr	r2, .L26
 459 0008 FB1D     		add	r3, r7, #7
 460 000a 1278     		ldrb	r2, [r2]
 461 000c 1A70     		strb	r2, [r3]
 431:.\Generated_Source\PSoC4/SPI.c **** 
 432:.\Generated_Source\PSoC4/SPI.c ****     #endif /* SPI_TX_SOFTWARE_BUF_ENABLED */
 433:.\Generated_Source\PSoC4/SPI.c **** 
 434:.\Generated_Source\PSoC4/SPI.c ****     return(tmpStatus);
 462              		.loc 1 434 0
 463 000e FB1D     		add	r3, r7, #7
 464 0010 1B78     		ldrb	r3, [r3]
 435:.\Generated_Source\PSoC4/SPI.c **** }
 465              		.loc 1 435 0
 466 0012 181C     		mov	r0, r3
 467 0014 BD46     		mov	sp, r7
 468 0016 02B0     		add	sp, sp, #8
 469              		@ sp needed for prologue
 470 0018 80BD     		pop	{r7, pc}
 471              	.L27:
 472 001a C046     		.align	2
 473              	.L26:
 474 001c 60000F40 		.word	1074724960
 475              		.cfi_endproc
 476              	.LFE10:
 477              		.size	SPI_ReadTxStatus, .-SPI_ReadTxStatus
ARM GAS  C:\Users\trehans\AppData\Local\Temp\cctEYhFI.s 			page 17


 478              		.section	.text.SPI_ReadRxStatus,"ax",%progbits
 479              		.align	2
 480              		.global	SPI_ReadRxStatus
 481              		.code	16
 482              		.thumb_func
 483              		.type	SPI_ReadRxStatus, %function
 484              	SPI_ReadRxStatus:
 485              	.LFB11:
 436:.\Generated_Source\PSoC4/SPI.c **** 
 437:.\Generated_Source\PSoC4/SPI.c **** 
 438:.\Generated_Source\PSoC4/SPI.c **** /*******************************************************************************
 439:.\Generated_Source\PSoC4/SPI.c **** * Function Name: SPI_ReadRxStatus
 440:.\Generated_Source\PSoC4/SPI.c **** ********************************************************************************
 441:.\Generated_Source\PSoC4/SPI.c **** *
 442:.\Generated_Source\PSoC4/SPI.c **** * Summary:
 443:.\Generated_Source\PSoC4/SPI.c **** *  Read the Rx status register for the component.
 444:.\Generated_Source\PSoC4/SPI.c **** *
 445:.\Generated_Source\PSoC4/SPI.c **** * Parameters:
 446:.\Generated_Source\PSoC4/SPI.c **** *  None.
 447:.\Generated_Source\PSoC4/SPI.c **** *
 448:.\Generated_Source\PSoC4/SPI.c **** * Return:
 449:.\Generated_Source\PSoC4/SPI.c **** *  Contents of the Rx status register.
 450:.\Generated_Source\PSoC4/SPI.c **** *
 451:.\Generated_Source\PSoC4/SPI.c **** * Global variables:
 452:.\Generated_Source\PSoC4/SPI.c **** *  SPI_swStatusRx - used to store in software Rx status register,
 453:.\Generated_Source\PSoC4/SPI.c **** *  modified every function call - resets to zero.
 454:.\Generated_Source\PSoC4/SPI.c **** *
 455:.\Generated_Source\PSoC4/SPI.c **** * Theory:
 456:.\Generated_Source\PSoC4/SPI.c **** *  Allows the user and the API to read the Rx status register for error
 457:.\Generated_Source\PSoC4/SPI.c **** *  detection and flow control.
 458:.\Generated_Source\PSoC4/SPI.c **** *
 459:.\Generated_Source\PSoC4/SPI.c **** * Side Effects:
 460:.\Generated_Source\PSoC4/SPI.c **** *  Clear Rx status register of the component.
 461:.\Generated_Source\PSoC4/SPI.c **** *
 462:.\Generated_Source\PSoC4/SPI.c **** * Reentrant:
 463:.\Generated_Source\PSoC4/SPI.c **** *  No.
 464:.\Generated_Source\PSoC4/SPI.c **** *
 465:.\Generated_Source\PSoC4/SPI.c **** *******************************************************************************/
 466:.\Generated_Source\PSoC4/SPI.c **** uint8 SPI_ReadRxStatus(void) 
 467:.\Generated_Source\PSoC4/SPI.c **** {
 486              		.loc 1 467 0
 487              		.cfi_startproc
 488 0000 80B5     		push	{r7, lr}
 489              	.LCFI27:
 490              		.cfi_def_cfa_offset 8
 491              		.cfi_offset 7, -8
 492              		.cfi_offset 14, -4
 493 0002 82B0     		sub	sp, sp, #8
 494              	.LCFI28:
 495              		.cfi_def_cfa_offset 16
 496 0004 00AF     		add	r7, sp, #0
 497              	.LCFI29:
 498              		.cfi_def_cfa_register 7
 468:.\Generated_Source\PSoC4/SPI.c ****     uint8 tmpStatus;
 469:.\Generated_Source\PSoC4/SPI.c **** 
 470:.\Generated_Source\PSoC4/SPI.c ****     #if (SPI_RX_SOFTWARE_BUF_ENABLED)
 471:.\Generated_Source\PSoC4/SPI.c **** 
ARM GAS  C:\Users\trehans\AppData\Local\Temp\cctEYhFI.s 			page 18


 472:.\Generated_Source\PSoC4/SPI.c ****         SPI_DisableRxInt();
 473:.\Generated_Source\PSoC4/SPI.c **** 
 474:.\Generated_Source\PSoC4/SPI.c ****         tmpStatus = SPI_GET_STATUS_RX(SPI_swStatusRx);
 475:.\Generated_Source\PSoC4/SPI.c **** 
 476:.\Generated_Source\PSoC4/SPI.c ****         SPI_swStatusRx = 0u;
 477:.\Generated_Source\PSoC4/SPI.c **** 
 478:.\Generated_Source\PSoC4/SPI.c ****         /* Enable Interrupts */
 479:.\Generated_Source\PSoC4/SPI.c ****         SPI_EnableRxInt();
 480:.\Generated_Source\PSoC4/SPI.c **** 
 481:.\Generated_Source\PSoC4/SPI.c ****     #else /* !SPI_RX_SOFTWARE_BUF_ENABLED */
 482:.\Generated_Source\PSoC4/SPI.c **** 
 483:.\Generated_Source\PSoC4/SPI.c ****         tmpStatus = SPI_RX_STATUS_REG;
 499              		.loc 1 483 0
 500 0006 054A     		ldr	r2, .L30
 501 0008 FB1D     		add	r3, r7, #7
 502 000a 1278     		ldrb	r2, [r2]
 503 000c 1A70     		strb	r2, [r3]
 484:.\Generated_Source\PSoC4/SPI.c **** 
 485:.\Generated_Source\PSoC4/SPI.c ****     #endif /* SPI_RX_SOFTWARE_BUF_ENABLED */
 486:.\Generated_Source\PSoC4/SPI.c **** 
 487:.\Generated_Source\PSoC4/SPI.c ****     return(tmpStatus);
 504              		.loc 1 487 0
 505 000e FB1D     		add	r3, r7, #7
 506 0010 1B78     		ldrb	r3, [r3]
 488:.\Generated_Source\PSoC4/SPI.c **** }
 507              		.loc 1 488 0
 508 0012 181C     		mov	r0, r3
 509 0014 BD46     		mov	sp, r7
 510 0016 02B0     		add	sp, sp, #8
 511              		@ sp needed for prologue
 512 0018 80BD     		pop	{r7, pc}
 513              	.L31:
 514 001a C046     		.align	2
 515              	.L30:
 516 001c 63000F40 		.word	1074724963
 517              		.cfi_endproc
 518              	.LFE11:
 519              		.size	SPI_ReadRxStatus, .-SPI_ReadRxStatus
 520              		.section	.text.SPI_WriteTxData,"ax",%progbits
 521              		.align	2
 522              		.global	SPI_WriteTxData
 523              		.code	16
 524              		.thumb_func
 525              		.type	SPI_WriteTxData, %function
 526              	SPI_WriteTxData:
 527              	.LFB12:
 489:.\Generated_Source\PSoC4/SPI.c **** 
 490:.\Generated_Source\PSoC4/SPI.c **** 
 491:.\Generated_Source\PSoC4/SPI.c **** /*******************************************************************************
 492:.\Generated_Source\PSoC4/SPI.c **** * Function Name: SPI_WriteTxData
 493:.\Generated_Source\PSoC4/SPI.c **** ********************************************************************************
 494:.\Generated_Source\PSoC4/SPI.c **** *
 495:.\Generated_Source\PSoC4/SPI.c **** * Summary:
 496:.\Generated_Source\PSoC4/SPI.c **** *  Write a byte of data to be sent across the SPI.
 497:.\Generated_Source\PSoC4/SPI.c **** *
 498:.\Generated_Source\PSoC4/SPI.c **** * Parameters:
 499:.\Generated_Source\PSoC4/SPI.c **** *  txDataByte: The data value to send across the SPI.
ARM GAS  C:\Users\trehans\AppData\Local\Temp\cctEYhFI.s 			page 19


 500:.\Generated_Source\PSoC4/SPI.c **** *
 501:.\Generated_Source\PSoC4/SPI.c **** * Return:
 502:.\Generated_Source\PSoC4/SPI.c **** *  None.
 503:.\Generated_Source\PSoC4/SPI.c **** *
 504:.\Generated_Source\PSoC4/SPI.c **** * Global variables:
 505:.\Generated_Source\PSoC4/SPI.c **** *  SPI_txBufferWrite - used for the account of the bytes which
 506:.\Generated_Source\PSoC4/SPI.c **** *  have been written down in the TX software buffer, modified every function
 507:.\Generated_Source\PSoC4/SPI.c **** *  call if TX Software Buffer is used.
 508:.\Generated_Source\PSoC4/SPI.c **** *  SPI_txBufferRead - used for the account of the bytes which
 509:.\Generated_Source\PSoC4/SPI.c **** *  have been read from the TX software buffer.
 510:.\Generated_Source\PSoC4/SPI.c **** *  SPI_txBuffer[SPI_TX_BUFFER_SIZE] - used to store
 511:.\Generated_Source\PSoC4/SPI.c **** *  data to sending, modified every function call if TX Software Buffer is used.
 512:.\Generated_Source\PSoC4/SPI.c **** *
 513:.\Generated_Source\PSoC4/SPI.c **** * Theory:
 514:.\Generated_Source\PSoC4/SPI.c **** *  Allows the user to transmit any byte of data in a single transfer.
 515:.\Generated_Source\PSoC4/SPI.c **** *
 516:.\Generated_Source\PSoC4/SPI.c **** * Side Effects:
 517:.\Generated_Source\PSoC4/SPI.c **** *  If this function is called again before the previous byte is finished then
 518:.\Generated_Source\PSoC4/SPI.c **** *  the next byte will be appended to the transfer with no time between
 519:.\Generated_Source\PSoC4/SPI.c **** *  the byte transfers. Clear Tx status register of the component.
 520:.\Generated_Source\PSoC4/SPI.c **** *
 521:.\Generated_Source\PSoC4/SPI.c **** * Reentrant:
 522:.\Generated_Source\PSoC4/SPI.c **** *  No.
 523:.\Generated_Source\PSoC4/SPI.c **** *
 524:.\Generated_Source\PSoC4/SPI.c **** *******************************************************************************/
 525:.\Generated_Source\PSoC4/SPI.c **** void SPI_WriteTxData(uint16 txData) 
 526:.\Generated_Source\PSoC4/SPI.c **** {
 528              		.loc 1 526 0
 529              		.cfi_startproc
 530 0000 80B5     		push	{r7, lr}
 531              	.LCFI30:
 532              		.cfi_def_cfa_offset 8
 533              		.cfi_offset 7, -8
 534              		.cfi_offset 14, -4
 535 0002 82B0     		sub	sp, sp, #8
 536              	.LCFI31:
 537              		.cfi_def_cfa_offset 16
 538 0004 00AF     		add	r7, sp, #0
 539              	.LCFI32:
 540              		.cfi_def_cfa_register 7
 541 0006 021C     		mov	r2, r0
 542 0008 BB1D     		add	r3, r7, #6
 543 000a 1A80     		strh	r2, [r3]
 527:.\Generated_Source\PSoC4/SPI.c ****     #if(SPI_TX_SOFTWARE_BUF_ENABLED)
 528:.\Generated_Source\PSoC4/SPI.c **** 
 529:.\Generated_Source\PSoC4/SPI.c ****         uint8 tempStatus;
 530:.\Generated_Source\PSoC4/SPI.c ****         uint8 tmpTxBufferRead;
 531:.\Generated_Source\PSoC4/SPI.c **** 
 532:.\Generated_Source\PSoC4/SPI.c ****         /* Block if buffer is full, so we don't overwrite. */
 533:.\Generated_Source\PSoC4/SPI.c ****         do
 534:.\Generated_Source\PSoC4/SPI.c ****         {
 535:.\Generated_Source\PSoC4/SPI.c ****             tmpTxBufferRead = SPI_txBufferRead;
 536:.\Generated_Source\PSoC4/SPI.c ****             if (0u == tmpTxBufferRead)
 537:.\Generated_Source\PSoC4/SPI.c ****             {
 538:.\Generated_Source\PSoC4/SPI.c ****                 tmpTxBufferRead = SPI_TX_BUFFER_SIZE - 1u;
 539:.\Generated_Source\PSoC4/SPI.c ****             }
 540:.\Generated_Source\PSoC4/SPI.c ****             else
ARM GAS  C:\Users\trehans\AppData\Local\Temp\cctEYhFI.s 			page 20


 541:.\Generated_Source\PSoC4/SPI.c ****             {
 542:.\Generated_Source\PSoC4/SPI.c ****                 tmpTxBufferRead--;
 543:.\Generated_Source\PSoC4/SPI.c ****             }
 544:.\Generated_Source\PSoC4/SPI.c **** 
 545:.\Generated_Source\PSoC4/SPI.c ****         } while(tmpTxBufferRead == SPI_txBufferWrite);
 546:.\Generated_Source\PSoC4/SPI.c **** 
 547:.\Generated_Source\PSoC4/SPI.c ****         /* Disable Interrupt to protect variables that could change on interrupt. */
 548:.\Generated_Source\PSoC4/SPI.c ****         SPI_DisableTxInt();
 549:.\Generated_Source\PSoC4/SPI.c **** 
 550:.\Generated_Source\PSoC4/SPI.c ****         tempStatus = SPI_GET_STATUS_TX(SPI_swStatusTx);
 551:.\Generated_Source\PSoC4/SPI.c ****         SPI_swStatusTx = tempStatus;
 552:.\Generated_Source\PSoC4/SPI.c **** 
 553:.\Generated_Source\PSoC4/SPI.c ****         if((SPI_txBufferRead == SPI_txBufferWrite) &&
 554:.\Generated_Source\PSoC4/SPI.c ****             (0u != (SPI_swStatusTx & SPI_STS_TX_FIFO_NOT_FULL)))
 555:.\Generated_Source\PSoC4/SPI.c ****         {
 556:.\Generated_Source\PSoC4/SPI.c ****             /* Add directly to the FIFO. */
 557:.\Generated_Source\PSoC4/SPI.c ****             CY_SET_REG16(SPI_TXDATA_PTR, txData);
 558:.\Generated_Source\PSoC4/SPI.c ****         }
 559:.\Generated_Source\PSoC4/SPI.c ****         else
 560:.\Generated_Source\PSoC4/SPI.c ****         {
 561:.\Generated_Source\PSoC4/SPI.c ****             /* Add to the software buffer. */
 562:.\Generated_Source\PSoC4/SPI.c ****             SPI_txBufferWrite++;
 563:.\Generated_Source\PSoC4/SPI.c ****             if(SPI_txBufferWrite >= SPI_TX_BUFFER_SIZE)
 564:.\Generated_Source\PSoC4/SPI.c ****             {
 565:.\Generated_Source\PSoC4/SPI.c ****                 SPI_txBufferWrite = 0u;
 566:.\Generated_Source\PSoC4/SPI.c ****             }
 567:.\Generated_Source\PSoC4/SPI.c **** 
 568:.\Generated_Source\PSoC4/SPI.c ****             if(SPI_txBufferWrite == SPI_txBufferRead)
 569:.\Generated_Source\PSoC4/SPI.c ****             {
 570:.\Generated_Source\PSoC4/SPI.c ****                 SPI_txBufferRead++;
 571:.\Generated_Source\PSoC4/SPI.c ****                 if(SPI_txBufferRead >= SPI_RX_BUFFER_SIZE)
 572:.\Generated_Source\PSoC4/SPI.c ****                 {
 573:.\Generated_Source\PSoC4/SPI.c ****                     SPI_txBufferRead = 0u;
 574:.\Generated_Source\PSoC4/SPI.c ****                 }
 575:.\Generated_Source\PSoC4/SPI.c ****                 SPI_txBufferFull = 1u;
 576:.\Generated_Source\PSoC4/SPI.c ****             }
 577:.\Generated_Source\PSoC4/SPI.c **** 
 578:.\Generated_Source\PSoC4/SPI.c ****             SPI_txBuffer[SPI_txBufferWrite] = txData;
 579:.\Generated_Source\PSoC4/SPI.c **** 
 580:.\Generated_Source\PSoC4/SPI.c ****             SPI_TX_STATUS_MASK_REG |= SPI_STS_TX_FIFO_NOT_FULL;
 581:.\Generated_Source\PSoC4/SPI.c ****         }
 582:.\Generated_Source\PSoC4/SPI.c **** 
 583:.\Generated_Source\PSoC4/SPI.c ****         /* Enable Interrupt. */
 584:.\Generated_Source\PSoC4/SPI.c ****         SPI_EnableTxInt();
 585:.\Generated_Source\PSoC4/SPI.c **** 
 586:.\Generated_Source\PSoC4/SPI.c ****     #else /* !SPI_TX_SOFTWARE_BUF_ENABLED*/
 587:.\Generated_Source\PSoC4/SPI.c **** 
 588:.\Generated_Source\PSoC4/SPI.c ****         
 589:.\Generated_Source\PSoC4/SPI.c ****         while(0u == (SPI_TX_STATUS_REG & SPI_STS_TX_FIFO_NOT_FULL))
 544              		.loc 1 589 0
 545 000c C046     		mov	r8, r8
 546              	.L33:
 547              		.loc 1 589 0 is_stmt 0 discriminator 1
 548 000e 074B     		ldr	r3, .L34
 549 0010 1B78     		ldrb	r3, [r3]
 550 0012 DBB2     		uxtb	r3, r3
 551 0014 1A1C     		mov	r2, r3
ARM GAS  C:\Users\trehans\AppData\Local\Temp\cctEYhFI.s 			page 21


 552 0016 0223     		mov	r3, #2
 553 0018 1340     		and	r3, r2
 554 001a F8D0     		beq	.L33
 590:.\Generated_Source\PSoC4/SPI.c **** 		{
 591:.\Generated_Source\PSoC4/SPI.c **** 			; /* Block while FIFO is full */
 592:.\Generated_Source\PSoC4/SPI.c **** 		}
 593:.\Generated_Source\PSoC4/SPI.c **** 
 594:.\Generated_Source\PSoC4/SPI.c ****         /* Then write the byte */
 595:.\Generated_Source\PSoC4/SPI.c ****         CY_SET_REG16(SPI_TXDATA_PTR, txData);
 555              		.loc 1 595 0 is_stmt 1
 556 001c 044B     		ldr	r3, .L34+4
 557 001e BA1D     		add	r2, r7, #6
 558 0020 1288     		ldrh	r2, [r2]
 559 0022 1A80     		strh	r2, [r3]
 596:.\Generated_Source\PSoC4/SPI.c **** 
 597:.\Generated_Source\PSoC4/SPI.c ****     #endif /* SPI_TX_SOFTWARE_BUF_ENABLED */
 598:.\Generated_Source\PSoC4/SPI.c **** }
 560              		.loc 1 598 0
 561 0024 BD46     		mov	sp, r7
 562 0026 02B0     		add	sp, sp, #8
 563              		@ sp needed for prologue
 564 0028 80BD     		pop	{r7, pc}
 565              	.L35:
 566 002a C046     		.align	2
 567              	.L34:
 568 002c 60000F40 		.word	1074724960
 569 0030 84100F40 		.word	1074729092
 570              		.cfi_endproc
 571              	.LFE12:
 572              		.size	SPI_WriteTxData, .-SPI_WriteTxData
 573              		.section	.text.SPI_ReadRxData,"ax",%progbits
 574              		.align	2
 575              		.global	SPI_ReadRxData
 576              		.code	16
 577              		.thumb_func
 578              		.type	SPI_ReadRxData, %function
 579              	SPI_ReadRxData:
 580              	.LFB13:
 599:.\Generated_Source\PSoC4/SPI.c **** 
 600:.\Generated_Source\PSoC4/SPI.c **** #if(SPI_MODE_USE_ZERO != 0u)
 601:.\Generated_Source\PSoC4/SPI.c **** 
 602:.\Generated_Source\PSoC4/SPI.c ****     /*******************************************************************************
 603:.\Generated_Source\PSoC4/SPI.c ****     * Function Name: SPI_WriteTxDataZero
 604:.\Generated_Source\PSoC4/SPI.c ****     ********************************************************************************
 605:.\Generated_Source\PSoC4/SPI.c ****     *
 606:.\Generated_Source\PSoC4/SPI.c ****     * Summary:
 607:.\Generated_Source\PSoC4/SPI.c ****     *  Write a byte zero of data to be sent across the SPI. This must be used in
 608:.\Generated_Source\PSoC4/SPI.c ****     *  Mode 00 and 01 if the FIFO is empty and data is not being sent.
 609:.\Generated_Source\PSoC4/SPI.c ****     *
 610:.\Generated_Source\PSoC4/SPI.c ****     * Parameters:
 611:.\Generated_Source\PSoC4/SPI.c ****     *  txDataByte: The data value to send across the SPI.
 612:.\Generated_Source\PSoC4/SPI.c ****     *
 613:.\Generated_Source\PSoC4/SPI.c ****     * Return:
 614:.\Generated_Source\PSoC4/SPI.c ****     *  None.
 615:.\Generated_Source\PSoC4/SPI.c ****     *
 616:.\Generated_Source\PSoC4/SPI.c ****     * Theory:
 617:.\Generated_Source\PSoC4/SPI.c ****     *  Allows the user to transmit any byte of data in a single transfer. Clear
ARM GAS  C:\Users\trehans\AppData\Local\Temp\cctEYhFI.s 			page 22


 618:.\Generated_Source\PSoC4/SPI.c ****     *  status register of the component.
 619:.\Generated_Source\PSoC4/SPI.c ****     *
 620:.\Generated_Source\PSoC4/SPI.c ****     *******************************************************************************/
 621:.\Generated_Source\PSoC4/SPI.c ****     void SPI_WriteTxDataZero(uint16 txDataByte)
 622:.\Generated_Source\PSoC4/SPI.c ****                                         
 623:.\Generated_Source\PSoC4/SPI.c ****     {
 624:.\Generated_Source\PSoC4/SPI.c ****         CY_SET_REG16(SPI_TXDATA_ZERO_PTR, txDataByte);
 625:.\Generated_Source\PSoC4/SPI.c ****     }
 626:.\Generated_Source\PSoC4/SPI.c **** 
 627:.\Generated_Source\PSoC4/SPI.c **** #endif /* (SPI_MODE_USE_ZERO != 0u) */
 628:.\Generated_Source\PSoC4/SPI.c **** 
 629:.\Generated_Source\PSoC4/SPI.c **** 
 630:.\Generated_Source\PSoC4/SPI.c **** /*******************************************************************************
 631:.\Generated_Source\PSoC4/SPI.c **** * Function Name: SPI_ReadRxData
 632:.\Generated_Source\PSoC4/SPI.c **** ********************************************************************************
 633:.\Generated_Source\PSoC4/SPI.c **** *
 634:.\Generated_Source\PSoC4/SPI.c **** * Summary:
 635:.\Generated_Source\PSoC4/SPI.c **** *  Read the next byte of data received across the SPI.
 636:.\Generated_Source\PSoC4/SPI.c **** *
 637:.\Generated_Source\PSoC4/SPI.c **** * Parameters:
 638:.\Generated_Source\PSoC4/SPI.c **** *  None.
 639:.\Generated_Source\PSoC4/SPI.c **** *
 640:.\Generated_Source\PSoC4/SPI.c **** * Return:
 641:.\Generated_Source\PSoC4/SPI.c **** *  The next byte of data read from the FIFO.
 642:.\Generated_Source\PSoC4/SPI.c **** *
 643:.\Generated_Source\PSoC4/SPI.c **** * Global variables:
 644:.\Generated_Source\PSoC4/SPI.c **** *  SPI_rxBufferWrite - used for the account of the bytes which
 645:.\Generated_Source\PSoC4/SPI.c **** *  have been written down in the RX software buffer.
 646:.\Generated_Source\PSoC4/SPI.c **** *  SPI_rxBufferRead - used for the account of the bytes which
 647:.\Generated_Source\PSoC4/SPI.c **** *  have been read from the RX software buffer, modified every function
 648:.\Generated_Source\PSoC4/SPI.c **** *  call if RX Software Buffer is used.
 649:.\Generated_Source\PSoC4/SPI.c **** *  SPI_rxBuffer[SPI_RX_BUFFER_SIZE] - used to store
 650:.\Generated_Source\PSoC4/SPI.c **** *  received data.
 651:.\Generated_Source\PSoC4/SPI.c **** *
 652:.\Generated_Source\PSoC4/SPI.c **** * Theory:
 653:.\Generated_Source\PSoC4/SPI.c **** *  Allows the user to read a byte of data received.
 654:.\Generated_Source\PSoC4/SPI.c **** *
 655:.\Generated_Source\PSoC4/SPI.c **** * Side Effects:
 656:.\Generated_Source\PSoC4/SPI.c **** *  Will return invalid data if the FIFO is empty.  User should poll for FIFO
 657:.\Generated_Source\PSoC4/SPI.c **** *  empty status before calling Read function.
 658:.\Generated_Source\PSoC4/SPI.c **** *
 659:.\Generated_Source\PSoC4/SPI.c **** * Reentrant:
 660:.\Generated_Source\PSoC4/SPI.c **** *  No.
 661:.\Generated_Source\PSoC4/SPI.c **** *
 662:.\Generated_Source\PSoC4/SPI.c **** *******************************************************************************/
 663:.\Generated_Source\PSoC4/SPI.c **** uint16 SPI_ReadRxData(void) 
 664:.\Generated_Source\PSoC4/SPI.c **** {
 581              		.loc 1 664 0
 582              		.cfi_startproc
 583 0000 80B5     		push	{r7, lr}
 584              	.LCFI33:
 585              		.cfi_def_cfa_offset 8
 586              		.cfi_offset 7, -8
 587              		.cfi_offset 14, -4
 588 0002 82B0     		sub	sp, sp, #8
 589              	.LCFI34:
 590              		.cfi_def_cfa_offset 16
ARM GAS  C:\Users\trehans\AppData\Local\Temp\cctEYhFI.s 			page 23


 591 0004 00AF     		add	r7, sp, #0
 592              	.LCFI35:
 593              		.cfi_def_cfa_register 7
 665:.\Generated_Source\PSoC4/SPI.c ****     uint16 rxData;
 666:.\Generated_Source\PSoC4/SPI.c **** 
 667:.\Generated_Source\PSoC4/SPI.c ****     #if(SPI_RX_SOFTWARE_BUF_ENABLED)
 668:.\Generated_Source\PSoC4/SPI.c **** 
 669:.\Generated_Source\PSoC4/SPI.c ****         /* Disable Interrupt to protect variables that could change on interrupt. */
 670:.\Generated_Source\PSoC4/SPI.c ****         SPI_DisableRxInt();
 671:.\Generated_Source\PSoC4/SPI.c **** 
 672:.\Generated_Source\PSoC4/SPI.c ****         if(SPI_rxBufferRead != SPI_rxBufferWrite)
 673:.\Generated_Source\PSoC4/SPI.c ****         {
 674:.\Generated_Source\PSoC4/SPI.c ****             if(SPI_rxBufferFull == 0u)
 675:.\Generated_Source\PSoC4/SPI.c ****             {
 676:.\Generated_Source\PSoC4/SPI.c ****                 SPI_rxBufferRead++;
 677:.\Generated_Source\PSoC4/SPI.c ****                 if(SPI_rxBufferRead >= SPI_RX_BUFFER_SIZE)
 678:.\Generated_Source\PSoC4/SPI.c ****                 {
 679:.\Generated_Source\PSoC4/SPI.c ****                     SPI_rxBufferRead = 0u;
 680:.\Generated_Source\PSoC4/SPI.c ****                 }
 681:.\Generated_Source\PSoC4/SPI.c ****             }
 682:.\Generated_Source\PSoC4/SPI.c ****             else
 683:.\Generated_Source\PSoC4/SPI.c ****             {
 684:.\Generated_Source\PSoC4/SPI.c ****                 SPI_rxBufferFull = 0u;
 685:.\Generated_Source\PSoC4/SPI.c ****             }
 686:.\Generated_Source\PSoC4/SPI.c ****         }
 687:.\Generated_Source\PSoC4/SPI.c **** 
 688:.\Generated_Source\PSoC4/SPI.c ****         rxData = SPI_rxBuffer[SPI_rxBufferRead];
 689:.\Generated_Source\PSoC4/SPI.c **** 
 690:.\Generated_Source\PSoC4/SPI.c ****         /* Enable Interrupt. */
 691:.\Generated_Source\PSoC4/SPI.c ****         SPI_EnableRxInt();
 692:.\Generated_Source\PSoC4/SPI.c **** 
 693:.\Generated_Source\PSoC4/SPI.c ****     #else /* !SPI_RX_SOFTWARE_BUF_ENABLED */
 694:.\Generated_Source\PSoC4/SPI.c **** 
 695:.\Generated_Source\PSoC4/SPI.c ****         rxData = CY_GET_REG16(SPI_RXDATA_PTR);
 594              		.loc 1 695 0
 595 0006 054A     		ldr	r2, .L38
 596 0008 BB1D     		add	r3, r7, #6
 597 000a 1288     		ldrh	r2, [r2]
 598 000c 1A80     		strh	r2, [r3]
 696:.\Generated_Source\PSoC4/SPI.c **** 
 697:.\Generated_Source\PSoC4/SPI.c ****     #endif /* SPI_RX_SOFTWARE_BUF_ENABLED */
 698:.\Generated_Source\PSoC4/SPI.c **** 
 699:.\Generated_Source\PSoC4/SPI.c ****     return (rxData);
 599              		.loc 1 699 0
 600 000e BB1D     		add	r3, r7, #6
 601 0010 1B88     		ldrh	r3, [r3]
 700:.\Generated_Source\PSoC4/SPI.c **** 
 701:.\Generated_Source\PSoC4/SPI.c **** }
 602              		.loc 1 701 0
 603 0012 181C     		mov	r0, r3
 604 0014 BD46     		mov	sp, r7
 605 0016 02B0     		add	sp, sp, #8
 606              		@ sp needed for prologue
 607 0018 80BD     		pop	{r7, pc}
 608              	.L39:
 609 001a C046     		.align	2
 610              	.L38:
ARM GAS  C:\Users\trehans\AppData\Local\Temp\cctEYhFI.s 			page 24


 611 001c A4100F40 		.word	1074729124
 612              		.cfi_endproc
 613              	.LFE13:
 614              		.size	SPI_ReadRxData, .-SPI_ReadRxData
 615              		.section	.text.SPI_GetRxBufferSize,"ax",%progbits
 616              		.align	2
 617              		.global	SPI_GetRxBufferSize
 618              		.code	16
 619              		.thumb_func
 620              		.type	SPI_GetRxBufferSize, %function
 621              	SPI_GetRxBufferSize:
 622              	.LFB14:
 702:.\Generated_Source\PSoC4/SPI.c **** 
 703:.\Generated_Source\PSoC4/SPI.c **** 
 704:.\Generated_Source\PSoC4/SPI.c **** /*******************************************************************************
 705:.\Generated_Source\PSoC4/SPI.c **** * Function Name: SPI_GetRxBufferSize
 706:.\Generated_Source\PSoC4/SPI.c **** ********************************************************************************
 707:.\Generated_Source\PSoC4/SPI.c **** *
 708:.\Generated_Source\PSoC4/SPI.c **** * Summary:
 709:.\Generated_Source\PSoC4/SPI.c **** *  Returns the number of bytes/words of data currently held in the RX buffer.
 710:.\Generated_Source\PSoC4/SPI.c **** *  If RX Software Buffer not used then function return 0 if FIFO empty or 1 if
 711:.\Generated_Source\PSoC4/SPI.c **** *  FIFO not empty. In another case function return size of RX Software Buffer.
 712:.\Generated_Source\PSoC4/SPI.c **** *
 713:.\Generated_Source\PSoC4/SPI.c **** * Parameters:
 714:.\Generated_Source\PSoC4/SPI.c **** *  None.
 715:.\Generated_Source\PSoC4/SPI.c **** *
 716:.\Generated_Source\PSoC4/SPI.c **** * Return:
 717:.\Generated_Source\PSoC4/SPI.c **** *  Integer count of the number of bytes/words in the RX buffer.
 718:.\Generated_Source\PSoC4/SPI.c **** *
 719:.\Generated_Source\PSoC4/SPI.c **** * Global variables:
 720:.\Generated_Source\PSoC4/SPI.c **** *  SPI_rxBufferWrite - used for the account of the bytes which
 721:.\Generated_Source\PSoC4/SPI.c **** *  have been written down in the RX software buffer.
 722:.\Generated_Source\PSoC4/SPI.c **** *  SPI_rxBufferRead - used for the account of the bytes which
 723:.\Generated_Source\PSoC4/SPI.c **** *  have been read from the RX software buffer.
 724:.\Generated_Source\PSoC4/SPI.c **** *
 725:.\Generated_Source\PSoC4/SPI.c **** * Theory:
 726:.\Generated_Source\PSoC4/SPI.c **** *  Allows the user to find out how full the RX Buffer is.
 727:.\Generated_Source\PSoC4/SPI.c **** *
 728:.\Generated_Source\PSoC4/SPI.c **** *******************************************************************************/
 729:.\Generated_Source\PSoC4/SPI.c **** uint8 SPI_GetRxBufferSize(void) 
 730:.\Generated_Source\PSoC4/SPI.c **** {
 623              		.loc 1 730 0
 624              		.cfi_startproc
 625 0000 80B5     		push	{r7, lr}
 626              	.LCFI36:
 627              		.cfi_def_cfa_offset 8
 628              		.cfi_offset 7, -8
 629              		.cfi_offset 14, -4
 630 0002 82B0     		sub	sp, sp, #8
 631              	.LCFI37:
 632              		.cfi_def_cfa_offset 16
 633 0004 00AF     		add	r7, sp, #0
 634              	.LCFI38:
 635              		.cfi_def_cfa_register 7
 731:.\Generated_Source\PSoC4/SPI.c ****     uint8 size;
 732:.\Generated_Source\PSoC4/SPI.c **** 
 733:.\Generated_Source\PSoC4/SPI.c ****     #if(SPI_RX_SOFTWARE_BUF_ENABLED)
ARM GAS  C:\Users\trehans\AppData\Local\Temp\cctEYhFI.s 			page 25


 734:.\Generated_Source\PSoC4/SPI.c **** 
 735:.\Generated_Source\PSoC4/SPI.c ****         /* Disable Interrupt to protect variables that could change on interrupt. */
 736:.\Generated_Source\PSoC4/SPI.c ****         SPI_DisableRxInt();
 737:.\Generated_Source\PSoC4/SPI.c **** 
 738:.\Generated_Source\PSoC4/SPI.c ****         if(SPI_rxBufferRead == SPI_rxBufferWrite)
 739:.\Generated_Source\PSoC4/SPI.c ****         {
 740:.\Generated_Source\PSoC4/SPI.c ****             size = 0u; /* No data in RX buffer */
 741:.\Generated_Source\PSoC4/SPI.c ****         }
 742:.\Generated_Source\PSoC4/SPI.c ****         else if(SPI_rxBufferRead < SPI_rxBufferWrite)
 743:.\Generated_Source\PSoC4/SPI.c ****         {
 744:.\Generated_Source\PSoC4/SPI.c ****             size = (SPI_rxBufferWrite - SPI_rxBufferRead);
 745:.\Generated_Source\PSoC4/SPI.c ****         }
 746:.\Generated_Source\PSoC4/SPI.c ****         else
 747:.\Generated_Source\PSoC4/SPI.c ****         {
 748:.\Generated_Source\PSoC4/SPI.c ****             size = (SPI_RX_BUFFER_SIZE - SPI_rxBufferRead) + SPI_rxBufferWrite;
 749:.\Generated_Source\PSoC4/SPI.c ****         }
 750:.\Generated_Source\PSoC4/SPI.c **** 
 751:.\Generated_Source\PSoC4/SPI.c ****         /* Enable interrupt. */
 752:.\Generated_Source\PSoC4/SPI.c ****         SPI_EnableRxInt();
 753:.\Generated_Source\PSoC4/SPI.c **** 
 754:.\Generated_Source\PSoC4/SPI.c ****     #else /* !SPI_RX_SOFTWARE_BUF_ENABLED*/
 755:.\Generated_Source\PSoC4/SPI.c **** 
 756:.\Generated_Source\PSoC4/SPI.c ****         /* We can only know if there is data in the fifo. */
 757:.\Generated_Source\PSoC4/SPI.c ****         size = ((SPI_RX_STATUS_REG & SPI_STS_RX_FIFO_NOT_EMPTY) != 0u) ? 1u : 0u;
 636              		.loc 1 757 0
 637 0006 094B     		ldr	r3, .L44
 638 0008 1B78     		ldrb	r3, [r3]
 639 000a DBB2     		uxtb	r3, r3
 640 000c 1A1C     		mov	r2, r3
 641 000e 0823     		mov	r3, #8
 642 0010 1340     		and	r3, r2
 643 0012 01D0     		beq	.L41
 644              		.loc 1 757 0 is_stmt 0 discriminator 1
 645 0014 0123     		mov	r3, #1
 646 0016 00E0     		b	.L42
 647              	.L41:
 648              		.loc 1 757 0 discriminator 2
 649 0018 0023     		mov	r3, #0
 650              	.L42:
 651              		.loc 1 757 0 discriminator 3
 652 001a FA1D     		add	r2, r7, #7
 653 001c 1370     		strb	r3, [r2]
 758:.\Generated_Source\PSoC4/SPI.c **** 
 759:.\Generated_Source\PSoC4/SPI.c ****     #endif /* SPI_RX_SOFTWARE_BUF_ENABLED */
 760:.\Generated_Source\PSoC4/SPI.c **** 
 761:.\Generated_Source\PSoC4/SPI.c ****     return (size);
 654              		.loc 1 761 0 is_stmt 1 discriminator 3
 655 001e FB1D     		add	r3, r7, #7
 656 0020 1B78     		ldrb	r3, [r3]
 762:.\Generated_Source\PSoC4/SPI.c **** }
 657              		.loc 1 762 0 discriminator 3
 658 0022 181C     		mov	r0, r3
 659 0024 BD46     		mov	sp, r7
 660 0026 02B0     		add	sp, sp, #8
 661              		@ sp needed for prologue
 662 0028 80BD     		pop	{r7, pc}
 663              	.L45:
ARM GAS  C:\Users\trehans\AppData\Local\Temp\cctEYhFI.s 			page 26


 664 002a C046     		.align	2
 665              	.L44:
 666 002c 63000F40 		.word	1074724963
 667              		.cfi_endproc
 668              	.LFE14:
 669              		.size	SPI_GetRxBufferSize, .-SPI_GetRxBufferSize
 670              		.section	.text.SPI_GetTxBufferSize,"ax",%progbits
 671              		.align	2
 672              		.global	SPI_GetTxBufferSize
 673              		.code	16
 674              		.thumb_func
 675              		.type	SPI_GetTxBufferSize, %function
 676              	SPI_GetTxBufferSize:
 677              	.LFB15:
 763:.\Generated_Source\PSoC4/SPI.c **** 
 764:.\Generated_Source\PSoC4/SPI.c **** 
 765:.\Generated_Source\PSoC4/SPI.c **** /*******************************************************************************
 766:.\Generated_Source\PSoC4/SPI.c **** * Function Name: SPI_GetTxBufferSize
 767:.\Generated_Source\PSoC4/SPI.c **** ********************************************************************************
 768:.\Generated_Source\PSoC4/SPI.c **** *
 769:.\Generated_Source\PSoC4/SPI.c **** * Summary:
 770:.\Generated_Source\PSoC4/SPI.c **** *  Returns the number of bytes/words of data currently held in the TX buffer.
 771:.\Generated_Source\PSoC4/SPI.c **** *  If TX Software Buffer not used then function return 0 - if FIFO empty, 1 - if
 772:.\Generated_Source\PSoC4/SPI.c **** *  FIFO not full, 4 - if FIFO full. In another case function return size of TX
 773:.\Generated_Source\PSoC4/SPI.c **** *  Software Buffer.
 774:.\Generated_Source\PSoC4/SPI.c **** *
 775:.\Generated_Source\PSoC4/SPI.c **** * Parameters:
 776:.\Generated_Source\PSoC4/SPI.c **** *  None.
 777:.\Generated_Source\PSoC4/SPI.c **** *
 778:.\Generated_Source\PSoC4/SPI.c **** * Return:
 779:.\Generated_Source\PSoC4/SPI.c **** *  Integer count of the number of bytes/words in the TX buffer.
 780:.\Generated_Source\PSoC4/SPI.c **** *
 781:.\Generated_Source\PSoC4/SPI.c **** * Global variables:
 782:.\Generated_Source\PSoC4/SPI.c **** *  SPI_txBufferWrite - used for the account of the bytes which
 783:.\Generated_Source\PSoC4/SPI.c **** *  have been written down in the TX software buffer.
 784:.\Generated_Source\PSoC4/SPI.c **** *  SPI_txBufferRead - used for the account of the bytes which
 785:.\Generated_Source\PSoC4/SPI.c **** *  have been read from the TX software buffer.
 786:.\Generated_Source\PSoC4/SPI.c **** *
 787:.\Generated_Source\PSoC4/SPI.c **** * Theory:
 788:.\Generated_Source\PSoC4/SPI.c **** *  Allows the user to find out how full the TX Buffer is.
 789:.\Generated_Source\PSoC4/SPI.c **** *
 790:.\Generated_Source\PSoC4/SPI.c **** * Side Effects:
 791:.\Generated_Source\PSoC4/SPI.c **** *  Clear status register of the component.
 792:.\Generated_Source\PSoC4/SPI.c **** *
 793:.\Generated_Source\PSoC4/SPI.c **** *******************************************************************************/
 794:.\Generated_Source\PSoC4/SPI.c **** uint8  SPI_GetTxBufferSize(void) 
 795:.\Generated_Source\PSoC4/SPI.c **** {
 678              		.loc 1 795 0
 679              		.cfi_startproc
 680 0000 80B5     		push	{r7, lr}
 681              	.LCFI39:
 682              		.cfi_def_cfa_offset 8
 683              		.cfi_offset 7, -8
 684              		.cfi_offset 14, -4
 685 0002 82B0     		sub	sp, sp, #8
 686              	.LCFI40:
 687              		.cfi_def_cfa_offset 16
ARM GAS  C:\Users\trehans\AppData\Local\Temp\cctEYhFI.s 			page 27


 688 0004 00AF     		add	r7, sp, #0
 689              	.LCFI41:
 690              		.cfi_def_cfa_register 7
 796:.\Generated_Source\PSoC4/SPI.c ****     uint8 size;
 797:.\Generated_Source\PSoC4/SPI.c **** 
 798:.\Generated_Source\PSoC4/SPI.c ****     #if(SPI_TX_SOFTWARE_BUF_ENABLED)
 799:.\Generated_Source\PSoC4/SPI.c **** 
 800:.\Generated_Source\PSoC4/SPI.c ****         /* Disable Interrupt to protect variables that could change on interrupt. */
 801:.\Generated_Source\PSoC4/SPI.c ****         SPI_DisableTxInt();
 802:.\Generated_Source\PSoC4/SPI.c **** 
 803:.\Generated_Source\PSoC4/SPI.c ****         if(SPI_txBufferRead == SPI_txBufferWrite)
 804:.\Generated_Source\PSoC4/SPI.c ****         {
 805:.\Generated_Source\PSoC4/SPI.c ****             size = 0u;
 806:.\Generated_Source\PSoC4/SPI.c ****         }
 807:.\Generated_Source\PSoC4/SPI.c ****         else if(SPI_txBufferRead < SPI_txBufferWrite)
 808:.\Generated_Source\PSoC4/SPI.c ****         {
 809:.\Generated_Source\PSoC4/SPI.c ****             size = (SPI_txBufferWrite - SPI_txBufferRead);
 810:.\Generated_Source\PSoC4/SPI.c ****         }
 811:.\Generated_Source\PSoC4/SPI.c ****         else
 812:.\Generated_Source\PSoC4/SPI.c ****         {
 813:.\Generated_Source\PSoC4/SPI.c ****             size = (SPI_TX_BUFFER_SIZE - SPI_txBufferRead) + SPI_txBufferWrite;
 814:.\Generated_Source\PSoC4/SPI.c ****         }
 815:.\Generated_Source\PSoC4/SPI.c **** 
 816:.\Generated_Source\PSoC4/SPI.c ****         /* Enable Interrupt. */
 817:.\Generated_Source\PSoC4/SPI.c ****         SPI_EnableTxInt();
 818:.\Generated_Source\PSoC4/SPI.c **** 
 819:.\Generated_Source\PSoC4/SPI.c ****     #else /* !SPI_TX_SOFTWARE_BUF_ENABLED */
 820:.\Generated_Source\PSoC4/SPI.c **** 
 821:.\Generated_Source\PSoC4/SPI.c ****         size = SPI_TX_STATUS_REG;
 691              		.loc 1 821 0
 692 0006 0F4A     		ldr	r2, .L51
 693 0008 FB1D     		add	r3, r7, #7
 694 000a 1278     		ldrb	r2, [r2]
 695 000c 1A70     		strb	r2, [r3]
 822:.\Generated_Source\PSoC4/SPI.c **** 
 823:.\Generated_Source\PSoC4/SPI.c ****         /* Is the fifo is full. */
 824:.\Generated_Source\PSoC4/SPI.c ****         if((size & SPI_STS_TX_FIFO_EMPTY) != 0u)
 696              		.loc 1 824 0
 697 000e FB1D     		add	r3, r7, #7
 698 0010 1A78     		ldrb	r2, [r3]
 699 0012 0423     		mov	r3, #4
 700 0014 1340     		and	r3, r2
 701 0016 03D0     		beq	.L47
 825:.\Generated_Source\PSoC4/SPI.c ****         {
 826:.\Generated_Source\PSoC4/SPI.c ****             size = 0u;
 702              		.loc 1 826 0
 703 0018 FB1D     		add	r3, r7, #7
 704 001a 0022     		mov	r2, #0
 705 001c 1A70     		strb	r2, [r3]
 706 001e 0BE0     		b	.L48
 707              	.L47:
 827:.\Generated_Source\PSoC4/SPI.c ****         }
 828:.\Generated_Source\PSoC4/SPI.c ****         else if((size & SPI_STS_TX_FIFO_NOT_FULL) != 0u)
 708              		.loc 1 828 0
 709 0020 FB1D     		add	r3, r7, #7
 710 0022 1A78     		ldrb	r2, [r3]
 711 0024 0223     		mov	r3, #2
ARM GAS  C:\Users\trehans\AppData\Local\Temp\cctEYhFI.s 			page 28


 712 0026 1340     		and	r3, r2
 713 0028 03D0     		beq	.L49
 829:.\Generated_Source\PSoC4/SPI.c ****         {
 830:.\Generated_Source\PSoC4/SPI.c ****             size = 1u;
 714              		.loc 1 830 0
 715 002a FB1D     		add	r3, r7, #7
 716 002c 0122     		mov	r2, #1
 717 002e 1A70     		strb	r2, [r3]
 718 0030 02E0     		b	.L48
 719              	.L49:
 831:.\Generated_Source\PSoC4/SPI.c ****         }
 832:.\Generated_Source\PSoC4/SPI.c ****         else
 833:.\Generated_Source\PSoC4/SPI.c ****         {
 834:.\Generated_Source\PSoC4/SPI.c ****             size = 4u;
 720              		.loc 1 834 0
 721 0032 FB1D     		add	r3, r7, #7
 722 0034 0422     		mov	r2, #4
 723 0036 1A70     		strb	r2, [r3]
 724              	.L48:
 835:.\Generated_Source\PSoC4/SPI.c ****         }
 836:.\Generated_Source\PSoC4/SPI.c **** 
 837:.\Generated_Source\PSoC4/SPI.c ****     #endif /* SPI_TX_SOFTWARE_BUF_ENABLED */
 838:.\Generated_Source\PSoC4/SPI.c **** 
 839:.\Generated_Source\PSoC4/SPI.c ****     return (size);
 725              		.loc 1 839 0
 726 0038 FB1D     		add	r3, r7, #7
 727 003a 1B78     		ldrb	r3, [r3]
 840:.\Generated_Source\PSoC4/SPI.c **** }
 728              		.loc 1 840 0
 729 003c 181C     		mov	r0, r3
 730 003e BD46     		mov	sp, r7
 731 0040 02B0     		add	sp, sp, #8
 732              		@ sp needed for prologue
 733 0042 80BD     		pop	{r7, pc}
 734              	.L52:
 735              		.align	2
 736              	.L51:
 737 0044 60000F40 		.word	1074724960
 738              		.cfi_endproc
 739              	.LFE15:
 740              		.size	SPI_GetTxBufferSize, .-SPI_GetTxBufferSize
 741              		.section	.text.SPI_ClearRxBuffer,"ax",%progbits
 742              		.align	2
 743              		.global	SPI_ClearRxBuffer
 744              		.code	16
 745              		.thumb_func
 746              		.type	SPI_ClearRxBuffer, %function
 747              	SPI_ClearRxBuffer:
 748              	.LFB16:
 841:.\Generated_Source\PSoC4/SPI.c **** 
 842:.\Generated_Source\PSoC4/SPI.c **** 
 843:.\Generated_Source\PSoC4/SPI.c **** /*******************************************************************************
 844:.\Generated_Source\PSoC4/SPI.c **** * Function Name: SPI_ClearRxBuffer
 845:.\Generated_Source\PSoC4/SPI.c **** ********************************************************************************
 846:.\Generated_Source\PSoC4/SPI.c **** *
 847:.\Generated_Source\PSoC4/SPI.c **** * Summary:
 848:.\Generated_Source\PSoC4/SPI.c **** *  Clear the RX RAM buffer by setting the read and write pointers both to zero.
ARM GAS  C:\Users\trehans\AppData\Local\Temp\cctEYhFI.s 			page 29


 849:.\Generated_Source\PSoC4/SPI.c **** *
 850:.\Generated_Source\PSoC4/SPI.c **** * Parameters:
 851:.\Generated_Source\PSoC4/SPI.c **** *  None.
 852:.\Generated_Source\PSoC4/SPI.c **** *
 853:.\Generated_Source\PSoC4/SPI.c **** * Return:
 854:.\Generated_Source\PSoC4/SPI.c **** *  None.
 855:.\Generated_Source\PSoC4/SPI.c **** *
 856:.\Generated_Source\PSoC4/SPI.c **** * Global variables:
 857:.\Generated_Source\PSoC4/SPI.c **** *  SPI_rxBufferWrite - used for the account of the bytes which
 858:.\Generated_Source\PSoC4/SPI.c **** *  have been written down in the RX software buffer, modified every function
 859:.\Generated_Source\PSoC4/SPI.c **** *  call - resets to zero.
 860:.\Generated_Source\PSoC4/SPI.c **** *  SPI_rxBufferRead - used for the account of the bytes which
 861:.\Generated_Source\PSoC4/SPI.c **** *  have been read from the RX software buffer, modified every function call -
 862:.\Generated_Source\PSoC4/SPI.c **** *  resets to zero.
 863:.\Generated_Source\PSoC4/SPI.c **** *
 864:.\Generated_Source\PSoC4/SPI.c **** * Theory:
 865:.\Generated_Source\PSoC4/SPI.c **** *  Setting the pointers to zero makes the system believe there is no data to
 866:.\Generated_Source\PSoC4/SPI.c **** *  read and writing will resume at address 0 overwriting any data that may have
 867:.\Generated_Source\PSoC4/SPI.c **** *  remained in the RAM.
 868:.\Generated_Source\PSoC4/SPI.c **** *
 869:.\Generated_Source\PSoC4/SPI.c **** * Side Effects:
 870:.\Generated_Source\PSoC4/SPI.c **** *  Any received data not read from the RAM buffer will be lost when overwritten.
 871:.\Generated_Source\PSoC4/SPI.c **** *
 872:.\Generated_Source\PSoC4/SPI.c **** * Reentrant:
 873:.\Generated_Source\PSoC4/SPI.c **** *  No.
 874:.\Generated_Source\PSoC4/SPI.c **** *
 875:.\Generated_Source\PSoC4/SPI.c **** *******************************************************************************/
 876:.\Generated_Source\PSoC4/SPI.c **** void SPI_ClearRxBuffer(void) 
 877:.\Generated_Source\PSoC4/SPI.c **** {
 749              		.loc 1 877 0
 750              		.cfi_startproc
 751 0000 80B5     		push	{r7, lr}
 752              	.LCFI42:
 753              		.cfi_def_cfa_offset 8
 754              		.cfi_offset 7, -8
 755              		.cfi_offset 14, -4
 756 0002 00AF     		add	r7, sp, #0
 757              	.LCFI43:
 758              		.cfi_def_cfa_register 7
 878:.\Generated_Source\PSoC4/SPI.c ****     /* Clear Hardware RX FIFO */
 879:.\Generated_Source\PSoC4/SPI.c ****     while((SPI_RX_STATUS_REG & SPI_STS_RX_FIFO_NOT_EMPTY) != 0u)
 759              		.loc 1 879 0
 760 0004 01E0     		b	.L54
 761              	.L55:
 880:.\Generated_Source\PSoC4/SPI.c ****     {
 881:.\Generated_Source\PSoC4/SPI.c ****         CY_GET_REG16(SPI_RXDATA_PTR);
 762              		.loc 1 881 0
 763 0006 054B     		ldr	r3, .L56
 764 0008 1B88     		ldrh	r3, [r3]
 765              	.L54:
 879:.\Generated_Source\PSoC4/SPI.c ****     while((SPI_RX_STATUS_REG & SPI_STS_RX_FIFO_NOT_EMPTY) != 0u)
 766              		.loc 1 879 0 discriminator 1
 767 000a 054B     		ldr	r3, .L56+4
 768 000c 1B78     		ldrb	r3, [r3]
 769 000e DBB2     		uxtb	r3, r3
 770 0010 1A1C     		mov	r2, r3
 771 0012 0823     		mov	r3, #8
ARM GAS  C:\Users\trehans\AppData\Local\Temp\cctEYhFI.s 			page 30


 772 0014 1340     		and	r3, r2
 773 0016 F6D1     		bne	.L55
 882:.\Generated_Source\PSoC4/SPI.c ****     }
 883:.\Generated_Source\PSoC4/SPI.c **** 
 884:.\Generated_Source\PSoC4/SPI.c ****     #if(SPI_RX_SOFTWARE_BUF_ENABLED)
 885:.\Generated_Source\PSoC4/SPI.c **** 
 886:.\Generated_Source\PSoC4/SPI.c ****         /* Disable interrupt to protect variables that could change on interrupt. */
 887:.\Generated_Source\PSoC4/SPI.c ****         SPI_DisableRxInt();
 888:.\Generated_Source\PSoC4/SPI.c **** 
 889:.\Generated_Source\PSoC4/SPI.c ****         SPI_rxBufferRead  = 0u;
 890:.\Generated_Source\PSoC4/SPI.c ****         SPI_rxBufferWrite = 0u;
 891:.\Generated_Source\PSoC4/SPI.c **** 		SPI_rxBufferFull  = 0u;
 892:.\Generated_Source\PSoC4/SPI.c ****         /* Enable interrupt. */
 893:.\Generated_Source\PSoC4/SPI.c ****         SPI_EnableRxInt();
 894:.\Generated_Source\PSoC4/SPI.c **** 
 895:.\Generated_Source\PSoC4/SPI.c ****     #endif /* SPI_RX_SOFTWARE_BUF_ENABLED */
 896:.\Generated_Source\PSoC4/SPI.c **** }
 774              		.loc 1 896 0
 775 0018 BD46     		mov	sp, r7
 776              		@ sp needed for prologue
 777 001a 80BD     		pop	{r7, pc}
 778              	.L57:
 779              		.align	2
 780              	.L56:
 781 001c A4100F40 		.word	1074729124
 782 0020 63000F40 		.word	1074724963
 783              		.cfi_endproc
 784              	.LFE16:
 785              		.size	SPI_ClearRxBuffer, .-SPI_ClearRxBuffer
 786              		.section	.text.SPI_ClearTxBuffer,"ax",%progbits
 787              		.align	2
 788              		.global	SPI_ClearTxBuffer
 789              		.code	16
 790              		.thumb_func
 791              		.type	SPI_ClearTxBuffer, %function
 792              	SPI_ClearTxBuffer:
 793              	.LFB17:
 897:.\Generated_Source\PSoC4/SPI.c **** 
 898:.\Generated_Source\PSoC4/SPI.c **** 
 899:.\Generated_Source\PSoC4/SPI.c **** /*******************************************************************************
 900:.\Generated_Source\PSoC4/SPI.c **** * Function Name: SPI_ClearTxBuffer
 901:.\Generated_Source\PSoC4/SPI.c **** ********************************************************************************
 902:.\Generated_Source\PSoC4/SPI.c **** *
 903:.\Generated_Source\PSoC4/SPI.c **** * Summary:
 904:.\Generated_Source\PSoC4/SPI.c **** *  Clear the TX RAM buffer by setting the read and write pointers both to zero.
 905:.\Generated_Source\PSoC4/SPI.c **** *
 906:.\Generated_Source\PSoC4/SPI.c **** * Parameters:
 907:.\Generated_Source\PSoC4/SPI.c **** *  None.
 908:.\Generated_Source\PSoC4/SPI.c **** *
 909:.\Generated_Source\PSoC4/SPI.c **** * Return:
 910:.\Generated_Source\PSoC4/SPI.c **** *  None.
 911:.\Generated_Source\PSoC4/SPI.c **** *
 912:.\Generated_Source\PSoC4/SPI.c **** * Global variables:
 913:.\Generated_Source\PSoC4/SPI.c **** *  SPI_txBufferWrite - used for the account of the bytes which
 914:.\Generated_Source\PSoC4/SPI.c **** *  have been written down in the TX software buffer, modified every function
 915:.\Generated_Source\PSoC4/SPI.c **** *  call - resets to zero.
 916:.\Generated_Source\PSoC4/SPI.c **** *  SPI_txBufferRead - used for the account of the bytes which
ARM GAS  C:\Users\trehans\AppData\Local\Temp\cctEYhFI.s 			page 31


 917:.\Generated_Source\PSoC4/SPI.c **** *  have been read from the TX software buffer, modified every function call -
 918:.\Generated_Source\PSoC4/SPI.c **** *  resets to zero.
 919:.\Generated_Source\PSoC4/SPI.c **** *
 920:.\Generated_Source\PSoC4/SPI.c **** * Theory:
 921:.\Generated_Source\PSoC4/SPI.c **** *  Setting the pointers to zero makes the system believe there is no data to
 922:.\Generated_Source\PSoC4/SPI.c **** *  read and writing will resume at address 0 overwriting any data that may have
 923:.\Generated_Source\PSoC4/SPI.c **** *  remained in the RAM.
 924:.\Generated_Source\PSoC4/SPI.c **** *
 925:.\Generated_Source\PSoC4/SPI.c **** * Side Effects:
 926:.\Generated_Source\PSoC4/SPI.c **** *  Any data not yet transmitted from the RAM buffer will be lost when
 927:.\Generated_Source\PSoC4/SPI.c **** *  overwritten.
 928:.\Generated_Source\PSoC4/SPI.c **** *
 929:.\Generated_Source\PSoC4/SPI.c **** * Reentrant:
 930:.\Generated_Source\PSoC4/SPI.c **** *  No.
 931:.\Generated_Source\PSoC4/SPI.c **** *
 932:.\Generated_Source\PSoC4/SPI.c **** *******************************************************************************/
 933:.\Generated_Source\PSoC4/SPI.c **** void SPI_ClearTxBuffer(void) 
 934:.\Generated_Source\PSoC4/SPI.c **** {
 794              		.loc 1 934 0
 795              		.cfi_startproc
 796 0000 90B5     		push	{r4, r7, lr}
 797              	.LCFI44:
 798              		.cfi_def_cfa_offset 12
 799              		.cfi_offset 4, -12
 800              		.cfi_offset 7, -8
 801              		.cfi_offset 14, -4
 802 0002 83B0     		sub	sp, sp, #12
 803              	.LCFI45:
 804              		.cfi_def_cfa_offset 24
 805 0004 00AF     		add	r7, sp, #0
 806              	.LCFI46:
 807              		.cfi_def_cfa_register 7
 935:.\Generated_Source\PSoC4/SPI.c ****     uint8 enableInterrupts;
 936:.\Generated_Source\PSoC4/SPI.c **** 
 937:.\Generated_Source\PSoC4/SPI.c ****     /* Clear Hardware TX FIFO */
 938:.\Generated_Source\PSoC4/SPI.c ****     enableInterrupts = CyEnterCriticalSection();
 808              		.loc 1 938 0
 809 0006 FC1D     		add	r4, r7, #7
 810 0008 FFF7FEFF 		bl	CyEnterCriticalSection
 811 000c 031C     		mov	r3, r0
 812 000e 2370     		strb	r3, [r4]
 939:.\Generated_Source\PSoC4/SPI.c **** 
 940:.\Generated_Source\PSoC4/SPI.c ****     #if(SPI_DATA_WIDTH <= 8u)
 941:.\Generated_Source\PSoC4/SPI.c **** 
 942:.\Generated_Source\PSoC4/SPI.c ****         /* Clear TX FIFO */
 943:.\Generated_Source\PSoC4/SPI.c ****         SPI_TX_AUX_CONTROL_DP0_REG |= (uint8)SPI_FIFO_CLR;
 944:.\Generated_Source\PSoC4/SPI.c ****         SPI_TX_AUX_CONTROL_DP0_REG &= (uint8)~SPI_FIFO_CLR;
 945:.\Generated_Source\PSoC4/SPI.c **** 
 946:.\Generated_Source\PSoC4/SPI.c ****     #else
 947:.\Generated_Source\PSoC4/SPI.c **** 
 948:.\Generated_Source\PSoC4/SPI.c ****         /* Clear TX FIFO */
 949:.\Generated_Source\PSoC4/SPI.c ****         SPI_TX_AUX_CONTROL_DP0_REG |= (uint8)SPI_FIFO_CLR;
 813              		.loc 1 949 0
 814 0010 134B     		ldr	r3, .L59
 815 0012 134A     		ldr	r2, .L59
 816 0014 1278     		ldrb	r2, [r2]
 817 0016 D2B2     		uxtb	r2, r2
ARM GAS  C:\Users\trehans\AppData\Local\Temp\cctEYhFI.s 			page 32


 818 0018 0321     		mov	r1, #3
 819 001a 0A43     		orr	r2, r1
 820 001c D2B2     		uxtb	r2, r2
 821 001e 1A70     		strb	r2, [r3]
 950:.\Generated_Source\PSoC4/SPI.c ****         SPI_TX_AUX_CONTROL_DP0_REG &= (uint8)~SPI_FIFO_CLR;
 822              		.loc 1 950 0
 823 0020 0F4B     		ldr	r3, .L59
 824 0022 0F4A     		ldr	r2, .L59
 825 0024 1278     		ldrb	r2, [r2]
 826 0026 D2B2     		uxtb	r2, r2
 827 0028 0321     		mov	r1, #3
 828 002a 8A43     		bic	r2, r1
 829 002c D2B2     		uxtb	r2, r2
 830 002e 1A70     		strb	r2, [r3]
 951:.\Generated_Source\PSoC4/SPI.c ****         SPI_TX_AUX_CONTROL_DP1_REG |= (uint8)SPI_FIFO_CLR;
 831              		.loc 1 951 0
 832 0030 0C4B     		ldr	r3, .L59+4
 833 0032 0C4A     		ldr	r2, .L59+4
 834 0034 1278     		ldrb	r2, [r2]
 835 0036 D2B2     		uxtb	r2, r2
 836 0038 0321     		mov	r1, #3
 837 003a 0A43     		orr	r2, r1
 838 003c D2B2     		uxtb	r2, r2
 839 003e 1A70     		strb	r2, [r3]
 952:.\Generated_Source\PSoC4/SPI.c ****         SPI_TX_AUX_CONTROL_DP1_REG &= (uint8)~SPI_FIFO_CLR;
 840              		.loc 1 952 0
 841 0040 084B     		ldr	r3, .L59+4
 842 0042 084A     		ldr	r2, .L59+4
 843 0044 1278     		ldrb	r2, [r2]
 844 0046 D2B2     		uxtb	r2, r2
 845 0048 0321     		mov	r1, #3
 846 004a 8A43     		bic	r2, r1
 847 004c D2B2     		uxtb	r2, r2
 848 004e 1A70     		strb	r2, [r3]
 953:.\Generated_Source\PSoC4/SPI.c **** 
 954:.\Generated_Source\PSoC4/SPI.c ****     #endif /* SPI_DATA_WIDTH > 8u */
 955:.\Generated_Source\PSoC4/SPI.c **** 
 956:.\Generated_Source\PSoC4/SPI.c ****     CyExitCriticalSection(enableInterrupts);
 849              		.loc 1 956 0
 850 0050 FB1D     		add	r3, r7, #7
 851 0052 1B78     		ldrb	r3, [r3]
 852 0054 181C     		mov	r0, r3
 853 0056 FFF7FEFF 		bl	CyExitCriticalSection
 957:.\Generated_Source\PSoC4/SPI.c **** 
 958:.\Generated_Source\PSoC4/SPI.c ****     #if(SPI_TX_SOFTWARE_BUF_ENABLED)
 959:.\Generated_Source\PSoC4/SPI.c **** 
 960:.\Generated_Source\PSoC4/SPI.c ****         /* Disable Interrupt to protect variables that could change on interrupt. */
 961:.\Generated_Source\PSoC4/SPI.c ****         SPI_DisableTxInt();
 962:.\Generated_Source\PSoC4/SPI.c **** 
 963:.\Generated_Source\PSoC4/SPI.c ****         SPI_txBufferRead  = 0u;
 964:.\Generated_Source\PSoC4/SPI.c ****         SPI_txBufferWrite = 0u;
 965:.\Generated_Source\PSoC4/SPI.c **** 		SPI_txBufferFull  = 0u;
 966:.\Generated_Source\PSoC4/SPI.c **** 		
 967:.\Generated_Source\PSoC4/SPI.c ****         /* If Buffer is empty then disable TX FIFO status interrupt */
 968:.\Generated_Source\PSoC4/SPI.c ****         SPI_TX_STATUS_MASK_REG &= (uint8)~SPI_STS_TX_FIFO_NOT_FULL;
 969:.\Generated_Source\PSoC4/SPI.c **** 
 970:.\Generated_Source\PSoC4/SPI.c ****         /* Enable Interrupt. */
ARM GAS  C:\Users\trehans\AppData\Local\Temp\cctEYhFI.s 			page 33


 971:.\Generated_Source\PSoC4/SPI.c ****         SPI_EnableTxInt();
 972:.\Generated_Source\PSoC4/SPI.c **** 
 973:.\Generated_Source\PSoC4/SPI.c ****     #endif /* SPI_TX_SOFTWARE_BUF_ENABLED */
 974:.\Generated_Source\PSoC4/SPI.c **** }
 854              		.loc 1 974 0
 855 005a BD46     		mov	sp, r7
 856 005c 03B0     		add	sp, sp, #12
 857              		@ sp needed for prologue
 858 005e 90BD     		pop	{r4, r7, pc}
 859              	.L60:
 860              		.align	2
 861              	.L59:
 862 0060 92000F40 		.word	1074725010
 863 0064 93000F40 		.word	1074725011
 864              		.cfi_endproc
 865              	.LFE17:
 866              		.size	SPI_ClearTxBuffer, .-SPI_ClearTxBuffer
 867              		.section	.text.SPI_PutArray,"ax",%progbits
 868              		.align	2
 869              		.global	SPI_PutArray
 870              		.code	16
 871              		.thumb_func
 872              		.type	SPI_PutArray, %function
 873              	SPI_PutArray:
 874              	.LFB18:
 975:.\Generated_Source\PSoC4/SPI.c **** 
 976:.\Generated_Source\PSoC4/SPI.c **** 
 977:.\Generated_Source\PSoC4/SPI.c **** #if (SPI_BIDIRECTIONAL_MODE != 0u)
 978:.\Generated_Source\PSoC4/SPI.c **** 
 979:.\Generated_Source\PSoC4/SPI.c ****     /*******************************************************************************
 980:.\Generated_Source\PSoC4/SPI.c ****     * Function Name: SPI_TxEnable
 981:.\Generated_Source\PSoC4/SPI.c ****     ********************************************************************************
 982:.\Generated_Source\PSoC4/SPI.c ****     *
 983:.\Generated_Source\PSoC4/SPI.c ****     * Summary:
 984:.\Generated_Source\PSoC4/SPI.c ****     *  If the SPI Slave is configured to use a single bi-directional pin then this
 985:.\Generated_Source\PSoC4/SPI.c ****     *  will set the bi-directional pin to transmit.
 986:.\Generated_Source\PSoC4/SPI.c ****     *
 987:.\Generated_Source\PSoC4/SPI.c ****     * Parameters:
 988:.\Generated_Source\PSoC4/SPI.c ****     *  None.
 989:.\Generated_Source\PSoC4/SPI.c ****     *
 990:.\Generated_Source\PSoC4/SPI.c ****     * Return:
 991:.\Generated_Source\PSoC4/SPI.c ****     *  None.
 992:.\Generated_Source\PSoC4/SPI.c ****     *
 993:.\Generated_Source\PSoC4/SPI.c ****     *******************************************************************************/
 994:.\Generated_Source\PSoC4/SPI.c ****     void SPI_TxEnable(void) 
 995:.\Generated_Source\PSoC4/SPI.c ****     {
 996:.\Generated_Source\PSoC4/SPI.c ****             SPI_CONTROL_REG |= SPI_CTRL_TX_SIGNAL_EN;
 997:.\Generated_Source\PSoC4/SPI.c ****     }
 998:.\Generated_Source\PSoC4/SPI.c **** 
 999:.\Generated_Source\PSoC4/SPI.c **** 
1000:.\Generated_Source\PSoC4/SPI.c ****     /*******************************************************************************
1001:.\Generated_Source\PSoC4/SPI.c ****     * Function Name: SPI_TxDisable
1002:.\Generated_Source\PSoC4/SPI.c ****     ********************************************************************************
1003:.\Generated_Source\PSoC4/SPI.c ****     *
1004:.\Generated_Source\PSoC4/SPI.c ****     * Summary:
1005:.\Generated_Source\PSoC4/SPI.c ****     *  If the SPI Slave is configured to use a single bi-directional pin then this
1006:.\Generated_Source\PSoC4/SPI.c ****     *  will set the bi-directional pin to receive.
ARM GAS  C:\Users\trehans\AppData\Local\Temp\cctEYhFI.s 			page 34


1007:.\Generated_Source\PSoC4/SPI.c ****     *
1008:.\Generated_Source\PSoC4/SPI.c ****     * Parameters:
1009:.\Generated_Source\PSoC4/SPI.c ****     *  None.
1010:.\Generated_Source\PSoC4/SPI.c ****     *
1011:.\Generated_Source\PSoC4/SPI.c ****     * Return:
1012:.\Generated_Source\PSoC4/SPI.c ****     *  None.
1013:.\Generated_Source\PSoC4/SPI.c ****     *
1014:.\Generated_Source\PSoC4/SPI.c ****     *******************************************************************************/
1015:.\Generated_Source\PSoC4/SPI.c ****     void SPI_TxDisable(void) 
1016:.\Generated_Source\PSoC4/SPI.c ****     {
1017:.\Generated_Source\PSoC4/SPI.c ****             SPI_CONTROL_REG &= (uint8)~SPI_CTRL_TX_SIGNAL_EN;
1018:.\Generated_Source\PSoC4/SPI.c ****     }
1019:.\Generated_Source\PSoC4/SPI.c **** 
1020:.\Generated_Source\PSoC4/SPI.c **** #endif /* SPI_BIDIRECTIONAL_MODE != 0u */
1021:.\Generated_Source\PSoC4/SPI.c **** 
1022:.\Generated_Source\PSoC4/SPI.c **** 
1023:.\Generated_Source\PSoC4/SPI.c **** /*******************************************************************************
1024:.\Generated_Source\PSoC4/SPI.c **** * Function Name: SPI_PutArray
1025:.\Generated_Source\PSoC4/SPI.c **** ********************************************************************************
1026:.\Generated_Source\PSoC4/SPI.c **** *
1027:.\Generated_Source\PSoC4/SPI.c **** * Summary:
1028:.\Generated_Source\PSoC4/SPI.c **** *  Write available data from RAM/ROM to the TX buffer while space is available
1029:.\Generated_Source\PSoC4/SPI.c **** *  in the TX buffer. Keep trying until all data is passed to the TX buffer. If
1030:.\Generated_Source\PSoC4/SPI.c **** *  used Mode 00 or 01 before PutArray() function should be called
1031:.\Generated_Source\PSoC4/SPI.c **** *  WriteTxDataZero() function.
1032:.\Generated_Source\PSoC4/SPI.c **** *
1033:.\Generated_Source\PSoC4/SPI.c **** * Parameters:
1034:.\Generated_Source\PSoC4/SPI.c **** *  *buffer: Pointer to the location in RAM containing the data to send
1035:.\Generated_Source\PSoC4/SPI.c **** *  byteCount: The number of bytes to move to the transmit buffer.
1036:.\Generated_Source\PSoC4/SPI.c **** *
1037:.\Generated_Source\PSoC4/SPI.c **** * Return:
1038:.\Generated_Source\PSoC4/SPI.c **** *  None.
1039:.\Generated_Source\PSoC4/SPI.c **** *
1040:.\Generated_Source\PSoC4/SPI.c **** * Side Effects:
1041:.\Generated_Source\PSoC4/SPI.c **** *  Will stay in this routine until all data has been sent.  May get locked in
1042:.\Generated_Source\PSoC4/SPI.c **** *  this loop if data is not being initiated by the master if there is not
1043:.\Generated_Source\PSoC4/SPI.c **** *  enough room in the TX FIFO.
1044:.\Generated_Source\PSoC4/SPI.c **** *
1045:.\Generated_Source\PSoC4/SPI.c **** * Reentrant:
1046:.\Generated_Source\PSoC4/SPI.c **** *  No.
1047:.\Generated_Source\PSoC4/SPI.c **** *
1048:.\Generated_Source\PSoC4/SPI.c **** *******************************************************************************/
1049:.\Generated_Source\PSoC4/SPI.c **** void SPI_PutArray(const uint16 buffer[], uint8 byteCount)
1050:.\Generated_Source\PSoC4/SPI.c ****                                                                     
1051:.\Generated_Source\PSoC4/SPI.c **** {
 875              		.loc 1 1051 0
 876              		.cfi_startproc
 877 0000 80B5     		push	{r7, lr}
 878              	.LCFI47:
 879              		.cfi_def_cfa_offset 8
 880              		.cfi_offset 7, -8
 881              		.cfi_offset 14, -4
 882 0002 84B0     		sub	sp, sp, #16
 883              	.LCFI48:
 884              		.cfi_def_cfa_offset 24
 885 0004 00AF     		add	r7, sp, #0
 886              	.LCFI49:
ARM GAS  C:\Users\trehans\AppData\Local\Temp\cctEYhFI.s 			page 35


 887              		.cfi_def_cfa_register 7
 888 0006 7860     		str	r0, [r7, #4]
 889 0008 0A1C     		mov	r2, r1
 890 000a FB1C     		add	r3, r7, #3
 891 000c 1A70     		strb	r2, [r3]
1052:.\Generated_Source\PSoC4/SPI.c ****     uint8 bufIndex;
1053:.\Generated_Source\PSoC4/SPI.c ****     bufIndex = 0u;
 892              		.loc 1 1053 0
 893 000e 3B1C     		mov	r3, r7
 894 0010 0F33     		add	r3, r3, #15
 895 0012 0022     		mov	r2, #0
 896 0014 1A70     		strb	r2, [r3]
1054:.\Generated_Source\PSoC4/SPI.c **** 
1055:.\Generated_Source\PSoC4/SPI.c ****     while(byteCount > 0u)
 897              		.loc 1 1055 0
 898 0016 15E0     		b	.L62
 899              	.L63:
1056:.\Generated_Source\PSoC4/SPI.c ****     {
1057:.\Generated_Source\PSoC4/SPI.c ****         SPI_WriteTxData(buffer[bufIndex]);
 900              		.loc 1 1057 0
 901 0018 3B1C     		mov	r3, r7
 902 001a 0F33     		add	r3, r3, #15
 903 001c 1B78     		ldrb	r3, [r3]
 904 001e 5B00     		lsl	r3, r3, #1
 905 0020 7A68     		ldr	r2, [r7, #4]
 906 0022 D318     		add	r3, r2, r3
 907 0024 1B88     		ldrh	r3, [r3]
 908 0026 181C     		mov	r0, r3
 909 0028 FFF7FEFF 		bl	SPI_WriteTxData
1058:.\Generated_Source\PSoC4/SPI.c ****         bufIndex++;
 910              		.loc 1 1058 0
 911 002c 3B1C     		mov	r3, r7
 912 002e 0F33     		add	r3, r3, #15
 913 0030 3A1C     		mov	r2, r7
 914 0032 0F32     		add	r2, r2, #15
 915 0034 1278     		ldrb	r2, [r2]
 916 0036 0132     		add	r2, r2, #1
 917 0038 1A70     		strb	r2, [r3]
1059:.\Generated_Source\PSoC4/SPI.c ****         byteCount--;
 918              		.loc 1 1059 0
 919 003a FB1C     		add	r3, r7, #3
 920 003c FA1C     		add	r2, r7, #3
 921 003e 1278     		ldrb	r2, [r2]
 922 0040 013A     		sub	r2, r2, #1
 923 0042 1A70     		strb	r2, [r3]
 924              	.L62:
1055:.\Generated_Source\PSoC4/SPI.c ****     while(byteCount > 0u)
 925              		.loc 1 1055 0 discriminator 1
 926 0044 FB1C     		add	r3, r7, #3
 927 0046 1B78     		ldrb	r3, [r3]
 928 0048 002B     		cmp	r3, #0
 929 004a E5D1     		bne	.L63
1060:.\Generated_Source\PSoC4/SPI.c ****     }
1061:.\Generated_Source\PSoC4/SPI.c **** }
 930              		.loc 1 1061 0
 931 004c BD46     		mov	sp, r7
 932 004e 04B0     		add	sp, sp, #16
ARM GAS  C:\Users\trehans\AppData\Local\Temp\cctEYhFI.s 			page 36


 933              		@ sp needed for prologue
 934 0050 80BD     		pop	{r7, pc}
 935              		.cfi_endproc
 936              	.LFE18:
 937              		.size	SPI_PutArray, .-SPI_PutArray
 938 0052 C046     		.section	.text.SPI_ClearFIFO,"ax",%progbits
 939              		.align	2
 940              		.global	SPI_ClearFIFO
 941              		.code	16
 942              		.thumb_func
 943              		.type	SPI_ClearFIFO, %function
 944              	SPI_ClearFIFO:
 945              	.LFB19:
1062:.\Generated_Source\PSoC4/SPI.c **** 
1063:.\Generated_Source\PSoC4/SPI.c **** 
1064:.\Generated_Source\PSoC4/SPI.c **** /*******************************************************************************
1065:.\Generated_Source\PSoC4/SPI.c **** * Function Name: SPI_ClearFIFO
1066:.\Generated_Source\PSoC4/SPI.c **** ********************************************************************************
1067:.\Generated_Source\PSoC4/SPI.c **** *
1068:.\Generated_Source\PSoC4/SPI.c **** * Summary:
1069:.\Generated_Source\PSoC4/SPI.c **** *  Clear the RX and TX FIFO's of all data for a fresh start.
1070:.\Generated_Source\PSoC4/SPI.c **** *
1071:.\Generated_Source\PSoC4/SPI.c **** * Parameters:
1072:.\Generated_Source\PSoC4/SPI.c **** *  None.
1073:.\Generated_Source\PSoC4/SPI.c **** *
1074:.\Generated_Source\PSoC4/SPI.c **** * Return:
1075:.\Generated_Source\PSoC4/SPI.c **** *  None.
1076:.\Generated_Source\PSoC4/SPI.c **** *
1077:.\Generated_Source\PSoC4/SPI.c **** * Side Effects:
1078:.\Generated_Source\PSoC4/SPI.c **** *  Clear status register of the component.
1079:.\Generated_Source\PSoC4/SPI.c **** *
1080:.\Generated_Source\PSoC4/SPI.c **** *******************************************************************************/
1081:.\Generated_Source\PSoC4/SPI.c **** void SPI_ClearFIFO(void) 
1082:.\Generated_Source\PSoC4/SPI.c **** {
 946              		.loc 1 1082 0
 947              		.cfi_startproc
 948 0000 90B5     		push	{r4, r7, lr}
 949              	.LCFI50:
 950              		.cfi_def_cfa_offset 12
 951              		.cfi_offset 4, -12
 952              		.cfi_offset 7, -8
 953              		.cfi_offset 14, -4
 954 0002 83B0     		sub	sp, sp, #12
 955              	.LCFI51:
 956              		.cfi_def_cfa_offset 24
 957 0004 00AF     		add	r7, sp, #0
 958              	.LCFI52:
 959              		.cfi_def_cfa_register 7
1083:.\Generated_Source\PSoC4/SPI.c ****     uint8 enableInterrupts;
1084:.\Generated_Source\PSoC4/SPI.c **** 
1085:.\Generated_Source\PSoC4/SPI.c ****     while((SPI_RX_STATUS_REG & SPI_STS_RX_FIFO_NOT_EMPTY) != 0u)
 960              		.loc 1 1085 0
 961 0006 01E0     		b	.L65
 962              	.L66:
1086:.\Generated_Source\PSoC4/SPI.c ****     {
1087:.\Generated_Source\PSoC4/SPI.c ****         CY_GET_REG16(SPI_RXDATA_PTR);
 963              		.loc 1 1087 0
ARM GAS  C:\Users\trehans\AppData\Local\Temp\cctEYhFI.s 			page 37


 964 0008 1A4B     		ldr	r3, .L67
 965 000a 1B88     		ldrh	r3, [r3]
 966              	.L65:
1085:.\Generated_Source\PSoC4/SPI.c ****     while((SPI_RX_STATUS_REG & SPI_STS_RX_FIFO_NOT_EMPTY) != 0u)
 967              		.loc 1 1085 0 discriminator 1
 968 000c 1A4B     		ldr	r3, .L67+4
 969 000e 1B78     		ldrb	r3, [r3]
 970 0010 DBB2     		uxtb	r3, r3
 971 0012 1A1C     		mov	r2, r3
 972 0014 0823     		mov	r3, #8
 973 0016 1340     		and	r3, r2
 974 0018 F6D1     		bne	.L66
1088:.\Generated_Source\PSoC4/SPI.c ****     }
1089:.\Generated_Source\PSoC4/SPI.c **** 
1090:.\Generated_Source\PSoC4/SPI.c ****     enableInterrupts = CyEnterCriticalSection();
 975              		.loc 1 1090 0
 976 001a FC1D     		add	r4, r7, #7
 977 001c FFF7FEFF 		bl	CyEnterCriticalSection
 978 0020 031C     		mov	r3, r0
 979 0022 2370     		strb	r3, [r4]
1091:.\Generated_Source\PSoC4/SPI.c **** 
1092:.\Generated_Source\PSoC4/SPI.c ****     #if(SPI_DATA_WIDTH <= 8u)
1093:.\Generated_Source\PSoC4/SPI.c **** 
1094:.\Generated_Source\PSoC4/SPI.c ****         /* Clear TX FIFO */
1095:.\Generated_Source\PSoC4/SPI.c ****         SPI_TX_AUX_CONTROL_DP0_REG |= (uint8)SPI_FIFO_CLR;
1096:.\Generated_Source\PSoC4/SPI.c ****         SPI_TX_AUX_CONTROL_DP0_REG &= (uint8)~SPI_FIFO_CLR;
1097:.\Generated_Source\PSoC4/SPI.c **** 
1098:.\Generated_Source\PSoC4/SPI.c ****     #else
1099:.\Generated_Source\PSoC4/SPI.c **** 
1100:.\Generated_Source\PSoC4/SPI.c ****         /* Clear TX FIFO */
1101:.\Generated_Source\PSoC4/SPI.c ****         SPI_TX_AUX_CONTROL_DP0_REG |= (uint8)SPI_FIFO_CLR;
 980              		.loc 1 1101 0
 981 0024 154B     		ldr	r3, .L67+8
 982 0026 154A     		ldr	r2, .L67+8
 983 0028 1278     		ldrb	r2, [r2]
 984 002a D2B2     		uxtb	r2, r2
 985 002c 0321     		mov	r1, #3
 986 002e 0A43     		orr	r2, r1
 987 0030 D2B2     		uxtb	r2, r2
 988 0032 1A70     		strb	r2, [r3]
1102:.\Generated_Source\PSoC4/SPI.c ****         SPI_TX_AUX_CONTROL_DP0_REG &= (uint8)~SPI_FIFO_CLR;
 989              		.loc 1 1102 0
 990 0034 114B     		ldr	r3, .L67+8
 991 0036 114A     		ldr	r2, .L67+8
 992 0038 1278     		ldrb	r2, [r2]
 993 003a D2B2     		uxtb	r2, r2
 994 003c 0321     		mov	r1, #3
 995 003e 8A43     		bic	r2, r1
 996 0040 D2B2     		uxtb	r2, r2
 997 0042 1A70     		strb	r2, [r3]
1103:.\Generated_Source\PSoC4/SPI.c ****         SPI_TX_AUX_CONTROL_DP1_REG |= (uint8)SPI_FIFO_CLR;
 998              		.loc 1 1103 0
 999 0044 0E4B     		ldr	r3, .L67+12
 1000 0046 0E4A     		ldr	r2, .L67+12
 1001 0048 1278     		ldrb	r2, [r2]
 1002 004a D2B2     		uxtb	r2, r2
 1003 004c 0321     		mov	r1, #3
ARM GAS  C:\Users\trehans\AppData\Local\Temp\cctEYhFI.s 			page 38


 1004 004e 0A43     		orr	r2, r1
 1005 0050 D2B2     		uxtb	r2, r2
 1006 0052 1A70     		strb	r2, [r3]
1104:.\Generated_Source\PSoC4/SPI.c ****         SPI_TX_AUX_CONTROL_DP1_REG &= (uint8)~SPI_FIFO_CLR;
 1007              		.loc 1 1104 0
 1008 0054 0A4B     		ldr	r3, .L67+12
 1009 0056 0A4A     		ldr	r2, .L67+12
 1010 0058 1278     		ldrb	r2, [r2]
 1011 005a D2B2     		uxtb	r2, r2
 1012 005c 0321     		mov	r1, #3
 1013 005e 8A43     		bic	r2, r1
 1014 0060 D2B2     		uxtb	r2, r2
 1015 0062 1A70     		strb	r2, [r3]
1105:.\Generated_Source\PSoC4/SPI.c **** 
1106:.\Generated_Source\PSoC4/SPI.c ****     #endif /* SPI_DATA_WIDTH <= 8u */
1107:.\Generated_Source\PSoC4/SPI.c **** 
1108:.\Generated_Source\PSoC4/SPI.c ****     CyExitCriticalSection(enableInterrupts);
 1016              		.loc 1 1108 0
 1017 0064 FB1D     		add	r3, r7, #7
 1018 0066 1B78     		ldrb	r3, [r3]
 1019 0068 181C     		mov	r0, r3
 1020 006a FFF7FEFF 		bl	CyExitCriticalSection
1109:.\Generated_Source\PSoC4/SPI.c **** }
 1021              		.loc 1 1109 0
 1022 006e BD46     		mov	sp, r7
 1023 0070 03B0     		add	sp, sp, #12
 1024              		@ sp needed for prologue
 1025 0072 90BD     		pop	{r4, r7, pc}
 1026              	.L68:
 1027              		.align	2
 1028              	.L67:
 1029 0074 A4100F40 		.word	1074729124
 1030 0078 63000F40 		.word	1074724963
 1031 007c 92000F40 		.word	1074725010
 1032 0080 93000F40 		.word	1074725011
 1033              		.cfi_endproc
 1034              	.LFE19:
 1035              		.size	SPI_ClearFIFO, .-SPI_ClearFIFO
 1036              		.section	.text.SPI_EnableInt,"ax",%progbits
 1037              		.align	2
 1038              		.global	SPI_EnableInt
 1039              		.code	16
 1040              		.thumb_func
 1041              		.type	SPI_EnableInt, %function
 1042              	SPI_EnableInt:
 1043              	.LFB20:
1110:.\Generated_Source\PSoC4/SPI.c **** 
1111:.\Generated_Source\PSoC4/SPI.c **** 
1112:.\Generated_Source\PSoC4/SPI.c **** /* Following functions are for version Compatibility, they are obsolete.
1113:.\Generated_Source\PSoC4/SPI.c **** *  Please do not use it in new projects.
1114:.\Generated_Source\PSoC4/SPI.c **** */
1115:.\Generated_Source\PSoC4/SPI.c **** 
1116:.\Generated_Source\PSoC4/SPI.c **** 
1117:.\Generated_Source\PSoC4/SPI.c **** /*******************************************************************************
1118:.\Generated_Source\PSoC4/SPI.c **** * Function Name: SPI_EnableInt
1119:.\Generated_Source\PSoC4/SPI.c **** ********************************************************************************
1120:.\Generated_Source\PSoC4/SPI.c **** *
ARM GAS  C:\Users\trehans\AppData\Local\Temp\cctEYhFI.s 			page 39


1121:.\Generated_Source\PSoC4/SPI.c **** * Summary:
1122:.\Generated_Source\PSoC4/SPI.c **** *  Enable internal interrupt generation.
1123:.\Generated_Source\PSoC4/SPI.c **** *
1124:.\Generated_Source\PSoC4/SPI.c **** * Parameters:
1125:.\Generated_Source\PSoC4/SPI.c **** *  None.
1126:.\Generated_Source\PSoC4/SPI.c **** *
1127:.\Generated_Source\PSoC4/SPI.c **** * Return:
1128:.\Generated_Source\PSoC4/SPI.c **** *  None.
1129:.\Generated_Source\PSoC4/SPI.c **** *
1130:.\Generated_Source\PSoC4/SPI.c **** * Theory:
1131:.\Generated_Source\PSoC4/SPI.c **** *  Enable the internal interrupt output -or- the interrupt component itself.
1132:.\Generated_Source\PSoC4/SPI.c **** *
1133:.\Generated_Source\PSoC4/SPI.c **** *******************************************************************************/
1134:.\Generated_Source\PSoC4/SPI.c **** void SPI_EnableInt(void) 
1135:.\Generated_Source\PSoC4/SPI.c **** {
 1044              		.loc 1 1135 0
 1045              		.cfi_startproc
 1046 0000 80B5     		push	{r7, lr}
 1047              	.LCFI53:
 1048              		.cfi_def_cfa_offset 8
 1049              		.cfi_offset 7, -8
 1050              		.cfi_offset 14, -4
 1051 0002 00AF     		add	r7, sp, #0
 1052              	.LCFI54:
 1053              		.cfi_def_cfa_register 7
1136:.\Generated_Source\PSoC4/SPI.c ****     #if(SPI_INTERNAL_TX_INT_ENABLED)
1137:.\Generated_Source\PSoC4/SPI.c ****         CyIntEnable(SPI_TX_ISR_NUMBER);
1138:.\Generated_Source\PSoC4/SPI.c ****     #endif /* SPI_INTERNAL_TX_INT_ENABLED */
1139:.\Generated_Source\PSoC4/SPI.c **** 
1140:.\Generated_Source\PSoC4/SPI.c ****     #if(SPI_INTERNAL_RX_INT_ENABLED)
1141:.\Generated_Source\PSoC4/SPI.c ****         CyIntEnable(SPI_RX_ISR_NUMBER);
1142:.\Generated_Source\PSoC4/SPI.c ****     #endif /* SPI_INTERNAL_RX_INT_ENABLED */
1143:.\Generated_Source\PSoC4/SPI.c **** }
 1054              		.loc 1 1143 0
 1055 0004 BD46     		mov	sp, r7
 1056              		@ sp needed for prologue
 1057 0006 80BD     		pop	{r7, pc}
 1058              		.cfi_endproc
 1059              	.LFE20:
 1060              		.size	SPI_EnableInt, .-SPI_EnableInt
 1061              		.section	.text.SPI_DisableInt,"ax",%progbits
 1062              		.align	2
 1063              		.global	SPI_DisableInt
 1064              		.code	16
 1065              		.thumb_func
 1066              		.type	SPI_DisableInt, %function
 1067              	SPI_DisableInt:
 1068              	.LFB21:
1144:.\Generated_Source\PSoC4/SPI.c **** 
1145:.\Generated_Source\PSoC4/SPI.c **** 
1146:.\Generated_Source\PSoC4/SPI.c **** /*******************************************************************************
1147:.\Generated_Source\PSoC4/SPI.c **** * Function Name: SPI_DisableInt
1148:.\Generated_Source\PSoC4/SPI.c **** ********************************************************************************
1149:.\Generated_Source\PSoC4/SPI.c **** *
1150:.\Generated_Source\PSoC4/SPI.c **** * Summary:
1151:.\Generated_Source\PSoC4/SPI.c **** *  Disable internal interrupt generation.
1152:.\Generated_Source\PSoC4/SPI.c **** *
ARM GAS  C:\Users\trehans\AppData\Local\Temp\cctEYhFI.s 			page 40


1153:.\Generated_Source\PSoC4/SPI.c **** * Parameters:
1154:.\Generated_Source\PSoC4/SPI.c **** *  None.
1155:.\Generated_Source\PSoC4/SPI.c **** *
1156:.\Generated_Source\PSoC4/SPI.c **** * Return:
1157:.\Generated_Source\PSoC4/SPI.c **** *  None.
1158:.\Generated_Source\PSoC4/SPI.c **** *
1159:.\Generated_Source\PSoC4/SPI.c **** * Theory:
1160:.\Generated_Source\PSoC4/SPI.c **** *  Disable the internal interrupt output -or- the interrupt component itself.
1161:.\Generated_Source\PSoC4/SPI.c **** *
1162:.\Generated_Source\PSoC4/SPI.c **** *******************************************************************************/
1163:.\Generated_Source\PSoC4/SPI.c **** void SPI_DisableInt(void) 
1164:.\Generated_Source\PSoC4/SPI.c **** {
 1069              		.loc 1 1164 0
 1070              		.cfi_startproc
 1071 0000 80B5     		push	{r7, lr}
 1072              	.LCFI55:
 1073              		.cfi_def_cfa_offset 8
 1074              		.cfi_offset 7, -8
 1075              		.cfi_offset 14, -4
 1076 0002 00AF     		add	r7, sp, #0
 1077              	.LCFI56:
 1078              		.cfi_def_cfa_register 7
1165:.\Generated_Source\PSoC4/SPI.c ****     #if(SPI_INTERNAL_TX_INT_ENABLED)
1166:.\Generated_Source\PSoC4/SPI.c ****         CyIntDisable(SPI_TX_ISR_NUMBER);
1167:.\Generated_Source\PSoC4/SPI.c ****     #endif /* SPI_INTERNAL_TX_INT_ENABLED */
1168:.\Generated_Source\PSoC4/SPI.c **** 
1169:.\Generated_Source\PSoC4/SPI.c ****     #if(SPI_INTERNAL_RX_INT_ENABLED)
1170:.\Generated_Source\PSoC4/SPI.c ****         CyIntDisable(SPI_RX_ISR_NUMBER);
1171:.\Generated_Source\PSoC4/SPI.c ****     #endif /* SPI_INTERNAL_RX_INT_ENABLED */
1172:.\Generated_Source\PSoC4/SPI.c **** }
 1079              		.loc 1 1172 0
 1080 0004 BD46     		mov	sp, r7
 1081              		@ sp needed for prologue
 1082 0006 80BD     		pop	{r7, pc}
 1083              		.cfi_endproc
 1084              	.LFE21:
 1085              		.size	SPI_DisableInt, .-SPI_DisableInt
 1086              		.section	.text.SPI_SetInterruptMode,"ax",%progbits
 1087              		.align	2
 1088              		.global	SPI_SetInterruptMode
 1089              		.code	16
 1090              		.thumb_func
 1091              		.type	SPI_SetInterruptMode, %function
 1092              	SPI_SetInterruptMode:
 1093              	.LFB22:
1173:.\Generated_Source\PSoC4/SPI.c **** 
1174:.\Generated_Source\PSoC4/SPI.c **** 
1175:.\Generated_Source\PSoC4/SPI.c **** /*******************************************************************************
1176:.\Generated_Source\PSoC4/SPI.c **** * Function Name: SPI_SetInterruptMode
1177:.\Generated_Source\PSoC4/SPI.c **** ********************************************************************************
1178:.\Generated_Source\PSoC4/SPI.c **** *
1179:.\Generated_Source\PSoC4/SPI.c **** * Summary:
1180:.\Generated_Source\PSoC4/SPI.c **** *  Configure which status bits trigger an interrupt event.
1181:.\Generated_Source\PSoC4/SPI.c **** *
1182:.\Generated_Source\PSoC4/SPI.c **** * Parameters:
1183:.\Generated_Source\PSoC4/SPI.c **** *  intSrc: An or'd combination of the desired status bit masks (defined in the
1184:.\Generated_Source\PSoC4/SPI.c **** *  header file).
ARM GAS  C:\Users\trehans\AppData\Local\Temp\cctEYhFI.s 			page 41


1185:.\Generated_Source\PSoC4/SPI.c **** *
1186:.\Generated_Source\PSoC4/SPI.c **** * Return:
1187:.\Generated_Source\PSoC4/SPI.c **** *  None.
1188:.\Generated_Source\PSoC4/SPI.c **** *
1189:.\Generated_Source\PSoC4/SPI.c **** * Theory:
1190:.\Generated_Source\PSoC4/SPI.c **** *  Enables the output of specific status bits to the interrupt controller.
1191:.\Generated_Source\PSoC4/SPI.c **** *
1192:.\Generated_Source\PSoC4/SPI.c **** *******************************************************************************/
1193:.\Generated_Source\PSoC4/SPI.c **** void SPI_SetInterruptMode(uint8 intSrc) 
1194:.\Generated_Source\PSoC4/SPI.c **** {
 1094              		.loc 1 1194 0
 1095              		.cfi_startproc
 1096 0000 80B5     		push	{r7, lr}
 1097              	.LCFI57:
 1098              		.cfi_def_cfa_offset 8
 1099              		.cfi_offset 7, -8
 1100              		.cfi_offset 14, -4
 1101 0002 82B0     		sub	sp, sp, #8
 1102              	.LCFI58:
 1103              		.cfi_def_cfa_offset 16
 1104 0004 00AF     		add	r7, sp, #0
 1105              	.LCFI59:
 1106              		.cfi_def_cfa_register 7
 1107 0006 021C     		mov	r2, r0
 1108 0008 FB1D     		add	r3, r7, #7
 1109 000a 1A70     		strb	r2, [r3]
1195:.\Generated_Source\PSoC4/SPI.c ****     SPI_TX_STATUS_MASK_REG  = intSrc;
 1110              		.loc 1 1195 0
 1111 000c 054B     		ldr	r3, .L72
 1112 000e FA1D     		add	r2, r7, #7
 1113 0010 1278     		ldrb	r2, [r2]
 1114 0012 1A70     		strb	r2, [r3]
1196:.\Generated_Source\PSoC4/SPI.c ****     SPI_RX_STATUS_MASK_REG  = intSrc;
 1115              		.loc 1 1196 0
 1116 0014 044B     		ldr	r3, .L72+4
 1117 0016 FA1D     		add	r2, r7, #7
 1118 0018 1278     		ldrb	r2, [r2]
 1119 001a 1A70     		strb	r2, [r3]
1197:.\Generated_Source\PSoC4/SPI.c **** }
 1120              		.loc 1 1197 0
 1121 001c BD46     		mov	sp, r7
 1122 001e 02B0     		add	sp, sp, #8
 1123              		@ sp needed for prologue
 1124 0020 80BD     		pop	{r7, pc}
 1125              	.L73:
 1126 0022 C046     		.align	2
 1127              	.L72:
 1128 0024 80000F40 		.word	1074724992
 1129 0028 83000F40 		.word	1074724995
 1130              		.cfi_endproc
 1131              	.LFE22:
 1132              		.size	SPI_SetInterruptMode, .-SPI_SetInterruptMode
 1133              		.section	.text.SPI_ReadStatus,"ax",%progbits
 1134              		.align	2
 1135              		.global	SPI_ReadStatus
 1136              		.code	16
 1137              		.thumb_func
ARM GAS  C:\Users\trehans\AppData\Local\Temp\cctEYhFI.s 			page 42


 1138              		.type	SPI_ReadStatus, %function
 1139              	SPI_ReadStatus:
 1140              	.LFB23:
1198:.\Generated_Source\PSoC4/SPI.c **** 
1199:.\Generated_Source\PSoC4/SPI.c **** 
1200:.\Generated_Source\PSoC4/SPI.c **** /*******************************************************************************
1201:.\Generated_Source\PSoC4/SPI.c **** * Function Name: SPI_ReadStatus
1202:.\Generated_Source\PSoC4/SPI.c **** ********************************************************************************
1203:.\Generated_Source\PSoC4/SPI.c **** *
1204:.\Generated_Source\PSoC4/SPI.c **** * Summary:
1205:.\Generated_Source\PSoC4/SPI.c **** *  Read the status register for the component.
1206:.\Generated_Source\PSoC4/SPI.c **** *
1207:.\Generated_Source\PSoC4/SPI.c **** * Parameters:
1208:.\Generated_Source\PSoC4/SPI.c **** *  None.
1209:.\Generated_Source\PSoC4/SPI.c **** *
1210:.\Generated_Source\PSoC4/SPI.c **** * Return:
1211:.\Generated_Source\PSoC4/SPI.c **** *  Contents of the status register.
1212:.\Generated_Source\PSoC4/SPI.c **** *
1213:.\Generated_Source\PSoC4/SPI.c **** * Global variables:
1214:.\Generated_Source\PSoC4/SPI.c **** *  SPI_swStatus - used to store in software status register,
1215:.\Generated_Source\PSoC4/SPI.c **** *  modified every function call - resets to zero.
1216:.\Generated_Source\PSoC4/SPI.c **** *
1217:.\Generated_Source\PSoC4/SPI.c **** * Theory:
1218:.\Generated_Source\PSoC4/SPI.c **** *  Allows the user and the API to read the status register for error detection
1219:.\Generated_Source\PSoC4/SPI.c **** *  and flow control.
1220:.\Generated_Source\PSoC4/SPI.c **** *
1221:.\Generated_Source\PSoC4/SPI.c **** * Side Effects:
1222:.\Generated_Source\PSoC4/SPI.c **** *  Clear status register of the component.
1223:.\Generated_Source\PSoC4/SPI.c **** *
1224:.\Generated_Source\PSoC4/SPI.c **** * Reentrant:
1225:.\Generated_Source\PSoC4/SPI.c **** *  No.
1226:.\Generated_Source\PSoC4/SPI.c **** *
1227:.\Generated_Source\PSoC4/SPI.c **** *******************************************************************************/
1228:.\Generated_Source\PSoC4/SPI.c **** uint8 SPI_ReadStatus(void) 
1229:.\Generated_Source\PSoC4/SPI.c **** {
 1141              		.loc 1 1229 0
 1142              		.cfi_startproc
 1143 0000 80B5     		push	{r7, lr}
 1144              	.LCFI60:
 1145              		.cfi_def_cfa_offset 8
 1146              		.cfi_offset 7, -8
 1147              		.cfi_offset 14, -4
 1148 0002 82B0     		sub	sp, sp, #8
 1149              	.LCFI61:
 1150              		.cfi_def_cfa_offset 16
 1151 0004 00AF     		add	r7, sp, #0
 1152              	.LCFI62:
 1153              		.cfi_def_cfa_register 7
1230:.\Generated_Source\PSoC4/SPI.c ****     uint8 tmpStatus;
1231:.\Generated_Source\PSoC4/SPI.c **** 
1232:.\Generated_Source\PSoC4/SPI.c ****     #if ((SPI_TX_SOFTWARE_BUF_ENABLED) || (SPI_RX_SOFTWARE_BUF_ENABLED))
1233:.\Generated_Source\PSoC4/SPI.c **** 
1234:.\Generated_Source\PSoC4/SPI.c ****         SPI_DisableInt();
1235:.\Generated_Source\PSoC4/SPI.c **** 
1236:.\Generated_Source\PSoC4/SPI.c ****         tmpStatus = SPI_GET_STATUS_TX(SPI_swStatusTx) |
1237:.\Generated_Source\PSoC4/SPI.c ****               (SPI_GET_STATUS_RX(SPI_swStatusRx) & (uint8)~SPI_STS_RX_FIFO_FULL);
1238:.\Generated_Source\PSoC4/SPI.c **** 
ARM GAS  C:\Users\trehans\AppData\Local\Temp\cctEYhFI.s 			page 43


1239:.\Generated_Source\PSoC4/SPI.c ****         SPI_swStatusTx = 0u;
1240:.\Generated_Source\PSoC4/SPI.c ****         SPI_swStatusRx = 0u;
1241:.\Generated_Source\PSoC4/SPI.c **** 
1242:.\Generated_Source\PSoC4/SPI.c ****         /* Enable Interrupts */
1243:.\Generated_Source\PSoC4/SPI.c ****         SPI_EnableInt();
1244:.\Generated_Source\PSoC4/SPI.c **** 
1245:.\Generated_Source\PSoC4/SPI.c ****     #else /* !((SPI_TX_SOFTWARE_BUF_ENABLED) || (SPI_RX_SOFTWARE_BUF_ENABLED)) */
1246:.\Generated_Source\PSoC4/SPI.c **** 
1247:.\Generated_Source\PSoC4/SPI.c ****         tmpStatus = SPI_TX_STATUS_REG | (SPI_RX_STATUS_REG &
 1154              		.loc 1 1247 0
 1155 0006 0A4B     		ldr	r3, .L76
 1156 0008 1B78     		ldrb	r3, [r3]
 1157 000a DBB2     		uxtb	r3, r3
 1158 000c DAB2     		uxtb	r2, r3
 1159 000e 094B     		ldr	r3, .L76+4
 1160 0010 1B78     		ldrb	r3, [r3]
 1161 0012 DBB2     		uxtb	r3, r3
 1162 0014 DBB2     		uxtb	r3, r3
 1163 0016 4021     		mov	r1, #64
 1164 0018 8B43     		bic	r3, r1
 1165 001a DBB2     		uxtb	r3, r3
 1166 001c 1343     		orr	r3, r2
 1167 001e DAB2     		uxtb	r2, r3
 1168 0020 FB1D     		add	r3, r7, #7
 1169 0022 1A70     		strb	r2, [r3]
1248:.\Generated_Source\PSoC4/SPI.c ****                                                       (uint8)~SPI_STS_RX_FIFO_FULL);
1249:.\Generated_Source\PSoC4/SPI.c **** 
1250:.\Generated_Source\PSoC4/SPI.c ****     #endif /* (SPI_TX_SOFTWARE_BUF_ENABLED) || (SPI_RX_SOFTWARE_BUF_ENABLED) */
1251:.\Generated_Source\PSoC4/SPI.c **** 
1252:.\Generated_Source\PSoC4/SPI.c ****     return(tmpStatus);
 1170              		.loc 1 1252 0
 1171 0024 FB1D     		add	r3, r7, #7
 1172 0026 1B78     		ldrb	r3, [r3]
1253:.\Generated_Source\PSoC4/SPI.c **** }
 1173              		.loc 1 1253 0
 1174 0028 181C     		mov	r0, r3
 1175 002a BD46     		mov	sp, r7
 1176 002c 02B0     		add	sp, sp, #8
 1177              		@ sp needed for prologue
 1178 002e 80BD     		pop	{r7, pc}
 1179              	.L77:
 1180              		.align	2
 1181              	.L76:
 1182 0030 60000F40 		.word	1074724960
 1183 0034 63000F40 		.word	1074724963
 1184              		.cfi_endproc
 1185              	.LFE23:
 1186              		.size	SPI_ReadStatus, .-SPI_ReadStatus
 1187              		.text
 1188              	.Letext0:
 1189              		.file 2 ".\\Generated_Source\\PSoC4\\cytypes.h"