ARM GAS  C:\Users\trehans\AppData\Local\Temp\ccVMRrIY.s 			page 1


   1              		.cpu cortex-m0
   2              		.fpu softvfp
   3              		.eabi_attribute 20, 1
   4              		.eabi_attribute 21, 1
   5              		.eabi_attribute 23, 3
   6              		.eabi_attribute 24, 1
   7              		.eabi_attribute 25, 1
   8              		.eabi_attribute 26, 1
   9              		.eabi_attribute 30, 6
  10              		.eabi_attribute 34, 0
  11              		.eabi_attribute 18, 4
  12              		.code	16
  13              		.file	"SPI_PM.c"
  14              		.text
  15              	.Ltext0:
  16              		.cfi_sections	.debug_frame
  17              		.data
  18              		.align	2
  19              		.type	SPI_backup, %object
  20              		.size	SPI_backup, 2
  21              	SPI_backup:
  22 0000 00       		.byte	0
  23 0001 0F       		.byte	15
  24 0002 0000     		.section	.text.SPI_SaveConfig,"ax",%progbits
  25              		.align	2
  26              		.global	SPI_SaveConfig
  27              		.code	16
  28              		.thumb_func
  29              		.type	SPI_SaveConfig, %function
  30              	SPI_SaveConfig:
  31              	.LFB0:
  32              		.file 1 ".\\Generated_Source\\PSoC4\\SPI_PM.c"
   1:.\Generated_Source\PSoC4/SPI_PM.c **** /*******************************************************************************
   2:.\Generated_Source\PSoC4/SPI_PM.c **** * File Name: SPI_PM.c
   3:.\Generated_Source\PSoC4/SPI_PM.c **** * Version 2.60
   4:.\Generated_Source\PSoC4/SPI_PM.c **** *
   5:.\Generated_Source\PSoC4/SPI_PM.c **** * Description:
   6:.\Generated_Source\PSoC4/SPI_PM.c **** *  This file contains the setup, control and status commands to support
   7:.\Generated_Source\PSoC4/SPI_PM.c **** *  component operations in low power mode.
   8:.\Generated_Source\PSoC4/SPI_PM.c **** *
   9:.\Generated_Source\PSoC4/SPI_PM.c **** * Note:
  10:.\Generated_Source\PSoC4/SPI_PM.c **** *
  11:.\Generated_Source\PSoC4/SPI_PM.c **** ********************************************************************************
  12:.\Generated_Source\PSoC4/SPI_PM.c **** * Copyright 2008-2013, Cypress Semiconductor Corporation.  All rights reserved.
  13:.\Generated_Source\PSoC4/SPI_PM.c **** * You may use this file only in accordance with the license, terms, conditions,
  14:.\Generated_Source\PSoC4/SPI_PM.c **** * disclaimers, and limitations in the end user license agreement accompanying
  15:.\Generated_Source\PSoC4/SPI_PM.c **** * the software package with which this file was provided.
  16:.\Generated_Source\PSoC4/SPI_PM.c **** *******************************************************************************/
  17:.\Generated_Source\PSoC4/SPI_PM.c **** 
  18:.\Generated_Source\PSoC4/SPI_PM.c **** #include "SPI_PVT.h"
  19:.\Generated_Source\PSoC4/SPI_PM.c **** 
  20:.\Generated_Source\PSoC4/SPI_PM.c **** static SPI_BACKUP_STRUCT SPI_backup = 
  21:.\Generated_Source\PSoC4/SPI_PM.c **** {
  22:.\Generated_Source\PSoC4/SPI_PM.c ****     SPI_DISABLED,
  23:.\Generated_Source\PSoC4/SPI_PM.c ****     SPI_BITCTR_INIT,
  24:.\Generated_Source\PSoC4/SPI_PM.c ****     #if(CY_UDB_V0)
  25:.\Generated_Source\PSoC4/SPI_PM.c ****         SPI_TX_INIT_INTERRUPTS_MASK,
ARM GAS  C:\Users\trehans\AppData\Local\Temp\ccVMRrIY.s 			page 2


  26:.\Generated_Source\PSoC4/SPI_PM.c ****         SPI_RX_INIT_INTERRUPTS_MASK
  27:.\Generated_Source\PSoC4/SPI_PM.c ****     #endif /* CY_UDB_V0 */
  28:.\Generated_Source\PSoC4/SPI_PM.c **** };
  29:.\Generated_Source\PSoC4/SPI_PM.c **** 
  30:.\Generated_Source\PSoC4/SPI_PM.c **** 
  31:.\Generated_Source\PSoC4/SPI_PM.c **** /*******************************************************************************
  32:.\Generated_Source\PSoC4/SPI_PM.c **** * Function Name: SPI_SaveConfig
  33:.\Generated_Source\PSoC4/SPI_PM.c **** ********************************************************************************
  34:.\Generated_Source\PSoC4/SPI_PM.c **** *
  35:.\Generated_Source\PSoC4/SPI_PM.c **** * Summary:
  36:.\Generated_Source\PSoC4/SPI_PM.c **** *  Saves SPIM configuration.
  37:.\Generated_Source\PSoC4/SPI_PM.c **** *
  38:.\Generated_Source\PSoC4/SPI_PM.c **** * Parameters:
  39:.\Generated_Source\PSoC4/SPI_PM.c **** *  None.
  40:.\Generated_Source\PSoC4/SPI_PM.c **** *
  41:.\Generated_Source\PSoC4/SPI_PM.c **** * Return:
  42:.\Generated_Source\PSoC4/SPI_PM.c **** *  None.
  43:.\Generated_Source\PSoC4/SPI_PM.c **** *
  44:.\Generated_Source\PSoC4/SPI_PM.c **** * Global Variables:
  45:.\Generated_Source\PSoC4/SPI_PM.c **** *  SPI_backup - modified when non-retention registers are saved.
  46:.\Generated_Source\PSoC4/SPI_PM.c **** *
  47:.\Generated_Source\PSoC4/SPI_PM.c **** * Reentrant:
  48:.\Generated_Source\PSoC4/SPI_PM.c **** *  No.
  49:.\Generated_Source\PSoC4/SPI_PM.c **** *
  50:.\Generated_Source\PSoC4/SPI_PM.c **** *******************************************************************************/
  51:.\Generated_Source\PSoC4/SPI_PM.c **** void SPI_SaveConfig(void) 
  52:.\Generated_Source\PSoC4/SPI_PM.c **** {
  33              		.loc 1 52 0
  34              		.cfi_startproc
  35 0000 80B5     		push	{r7, lr}
  36              	.LCFI0:
  37              		.cfi_def_cfa_offset 8
  38              		.cfi_offset 7, -8
  39              		.cfi_offset 14, -4
  40 0002 00AF     		add	r7, sp, #0
  41              	.LCFI1:
  42              		.cfi_def_cfa_register 7
  53:.\Generated_Source\PSoC4/SPI_PM.c ****     /* Store Status Mask registers */
  54:.\Generated_Source\PSoC4/SPI_PM.c ****     #if (CY_UDB_V0)
  55:.\Generated_Source\PSoC4/SPI_PM.c **** 
  56:.\Generated_Source\PSoC4/SPI_PM.c ****        SPI_backup.saveSrTxIntMask = SPI_TX_STATUS_MASK_REG;
  57:.\Generated_Source\PSoC4/SPI_PM.c ****        SPI_backup.saveSrRxIntMask = SPI_RX_STATUS_MASK_REG;
  58:.\Generated_Source\PSoC4/SPI_PM.c ****        SPI_backup.cntrPeriod      = SPI_COUNTER_PERIOD_REG;
  59:.\Generated_Source\PSoC4/SPI_PM.c **** 
  60:.\Generated_Source\PSoC4/SPI_PM.c ****     #endif /* CY_UDB_V0 */
  61:.\Generated_Source\PSoC4/SPI_PM.c **** }
  43              		.loc 1 61 0
  44 0004 BD46     		mov	sp, r7
  45              		@ sp needed for prologue
  46 0006 80BD     		pop	{r7, pc}
  47              		.cfi_endproc
  48              	.LFE0:
  49              		.size	SPI_SaveConfig, .-SPI_SaveConfig
  50              		.section	.text.SPI_RestoreConfig,"ax",%progbits
  51              		.align	2
  52              		.global	SPI_RestoreConfig
  53              		.code	16
ARM GAS  C:\Users\trehans\AppData\Local\Temp\ccVMRrIY.s 			page 3


  54              		.thumb_func
  55              		.type	SPI_RestoreConfig, %function
  56              	SPI_RestoreConfig:
  57              	.LFB1:
  62:.\Generated_Source\PSoC4/SPI_PM.c **** 
  63:.\Generated_Source\PSoC4/SPI_PM.c **** 
  64:.\Generated_Source\PSoC4/SPI_PM.c **** /*******************************************************************************
  65:.\Generated_Source\PSoC4/SPI_PM.c **** * Function Name: SPI_RestoreConfig
  66:.\Generated_Source\PSoC4/SPI_PM.c **** ********************************************************************************
  67:.\Generated_Source\PSoC4/SPI_PM.c **** *
  68:.\Generated_Source\PSoC4/SPI_PM.c **** * Summary:
  69:.\Generated_Source\PSoC4/SPI_PM.c **** *  Restores SPIS configuration.
  70:.\Generated_Source\PSoC4/SPI_PM.c **** *
  71:.\Generated_Source\PSoC4/SPI_PM.c **** * Parameters:
  72:.\Generated_Source\PSoC4/SPI_PM.c **** *  None.
  73:.\Generated_Source\PSoC4/SPI_PM.c **** *
  74:.\Generated_Source\PSoC4/SPI_PM.c **** * Return:
  75:.\Generated_Source\PSoC4/SPI_PM.c **** *  None.
  76:.\Generated_Source\PSoC4/SPI_PM.c **** *
  77:.\Generated_Source\PSoC4/SPI_PM.c **** * Global Variables:
  78:.\Generated_Source\PSoC4/SPI_PM.c **** *  SPI_backup - used when non-retention registers are restored.
  79:.\Generated_Source\PSoC4/SPI_PM.c **** *
  80:.\Generated_Source\PSoC4/SPI_PM.c **** * Side Effects:
  81:.\Generated_Source\PSoC4/SPI_PM.c **** *  If this API is called without first calling SaveConfig then in the following
  82:.\Generated_Source\PSoC4/SPI_PM.c **** *  registers will be default values from Customizer:
  83:.\Generated_Source\PSoC4/SPI_PM.c **** *  SPI_STATUS_MASK_REG and SPI_COUNTER_PERIOD_REG.
  84:.\Generated_Source\PSoC4/SPI_PM.c **** *
  85:.\Generated_Source\PSoC4/SPI_PM.c **** *******************************************************************************/
  86:.\Generated_Source\PSoC4/SPI_PM.c **** void SPI_RestoreConfig(void) 
  87:.\Generated_Source\PSoC4/SPI_PM.c **** {
  58              		.loc 1 87 0
  59              		.cfi_startproc
  60 0000 80B5     		push	{r7, lr}
  61              	.LCFI2:
  62              		.cfi_def_cfa_offset 8
  63              		.cfi_offset 7, -8
  64              		.cfi_offset 14, -4
  65 0002 00AF     		add	r7, sp, #0
  66              	.LCFI3:
  67              		.cfi_def_cfa_register 7
  88:.\Generated_Source\PSoC4/SPI_PM.c ****     /* Restore the data, saved by SaveConfig() function */
  89:.\Generated_Source\PSoC4/SPI_PM.c ****     #if (CY_UDB_V0)
  90:.\Generated_Source\PSoC4/SPI_PM.c **** 
  91:.\Generated_Source\PSoC4/SPI_PM.c ****         SPI_TX_STATUS_MASK_REG = SPI_backup.saveSrTxIntMask;
  92:.\Generated_Source\PSoC4/SPI_PM.c ****         SPI_RX_STATUS_MASK_REG = SPI_backup.saveSrRxIntMask;
  93:.\Generated_Source\PSoC4/SPI_PM.c ****         SPI_COUNTER_PERIOD_REG = SPI_backup.cntrPeriod;
  94:.\Generated_Source\PSoC4/SPI_PM.c **** 
  95:.\Generated_Source\PSoC4/SPI_PM.c ****     #endif /* CY_UDB_V0 */
  96:.\Generated_Source\PSoC4/SPI_PM.c **** }
  68              		.loc 1 96 0
  69 0004 BD46     		mov	sp, r7
  70              		@ sp needed for prologue
  71 0006 80BD     		pop	{r7, pc}
  72              		.cfi_endproc
  73              	.LFE1:
  74              		.size	SPI_RestoreConfig, .-SPI_RestoreConfig
  75              		.section	.text.SPI_Sleep,"ax",%progbits
ARM GAS  C:\Users\trehans\AppData\Local\Temp\ccVMRrIY.s 			page 4


  76              		.align	2
  77              		.global	SPI_Sleep
  78              		.code	16
  79              		.thumb_func
  80              		.type	SPI_Sleep, %function
  81              	SPI_Sleep:
  82              	.LFB2:
  97:.\Generated_Source\PSoC4/SPI_PM.c **** 
  98:.\Generated_Source\PSoC4/SPI_PM.c **** 
  99:.\Generated_Source\PSoC4/SPI_PM.c **** /*******************************************************************************
 100:.\Generated_Source\PSoC4/SPI_PM.c **** * Function Name: SPI_Sleep
 101:.\Generated_Source\PSoC4/SPI_PM.c **** ********************************************************************************
 102:.\Generated_Source\PSoC4/SPI_PM.c **** *
 103:.\Generated_Source\PSoC4/SPI_PM.c **** * Summary:
 104:.\Generated_Source\PSoC4/SPI_PM.c **** *  Prepare SPIM Component goes to sleep.
 105:.\Generated_Source\PSoC4/SPI_PM.c **** *
 106:.\Generated_Source\PSoC4/SPI_PM.c **** * Parameters:
 107:.\Generated_Source\PSoC4/SPI_PM.c **** *  None.
 108:.\Generated_Source\PSoC4/SPI_PM.c **** *
 109:.\Generated_Source\PSoC4/SPI_PM.c **** * Return:
 110:.\Generated_Source\PSoC4/SPI_PM.c **** *  None.
 111:.\Generated_Source\PSoC4/SPI_PM.c **** *
 112:.\Generated_Source\PSoC4/SPI_PM.c **** * Global Variables:
 113:.\Generated_Source\PSoC4/SPI_PM.c **** *  SPI_backup - modified when non-retention registers are saved.
 114:.\Generated_Source\PSoC4/SPI_PM.c **** *
 115:.\Generated_Source\PSoC4/SPI_PM.c **** * Reentrant:
 116:.\Generated_Source\PSoC4/SPI_PM.c **** *  No.
 117:.\Generated_Source\PSoC4/SPI_PM.c **** *
 118:.\Generated_Source\PSoC4/SPI_PM.c **** *******************************************************************************/
 119:.\Generated_Source\PSoC4/SPI_PM.c **** void SPI_Sleep(void) 
 120:.\Generated_Source\PSoC4/SPI_PM.c **** {
  83              		.loc 1 120 0
  84              		.cfi_startproc
  85 0000 80B5     		push	{r7, lr}
  86              	.LCFI4:
  87              		.cfi_def_cfa_offset 8
  88              		.cfi_offset 7, -8
  89              		.cfi_offset 14, -4
  90 0002 00AF     		add	r7, sp, #0
  91              	.LCFI5:
  92              		.cfi_def_cfa_register 7
 121:.\Generated_Source\PSoC4/SPI_PM.c ****     /* Save components enable state */
 122:.\Generated_Source\PSoC4/SPI_PM.c ****     if ((SPI_TX_STATUS_ACTL_REG & SPI_INT_ENABLE) != 0u)
  93              		.loc 1 122 0
  94 0004 094B     		ldr	r3, .L6
  95 0006 1B78     		ldrb	r3, [r3]
  96 0008 DBB2     		uxtb	r3, r3
  97 000a 1A1C     		mov	r2, r3
  98 000c 1023     		mov	r3, #16
  99 000e 1340     		and	r3, r2
 100 0010 03D0     		beq	.L4
 123:.\Generated_Source\PSoC4/SPI_PM.c ****     {
 124:.\Generated_Source\PSoC4/SPI_PM.c ****         SPI_backup.enableState = 1u;
 101              		.loc 1 124 0
 102 0012 074B     		ldr	r3, .L6+4
 103 0014 0122     		mov	r2, #1
 104 0016 1A70     		strb	r2, [r3]
ARM GAS  C:\Users\trehans\AppData\Local\Temp\ccVMRrIY.s 			page 5


 105 0018 02E0     		b	.L5
 106              	.L4:
 125:.\Generated_Source\PSoC4/SPI_PM.c ****     }
 126:.\Generated_Source\PSoC4/SPI_PM.c ****     else /* Components block is disabled */
 127:.\Generated_Source\PSoC4/SPI_PM.c ****     {
 128:.\Generated_Source\PSoC4/SPI_PM.c ****         SPI_backup.enableState = 0u;
 107              		.loc 1 128 0
 108 001a 054B     		ldr	r3, .L6+4
 109 001c 0022     		mov	r2, #0
 110 001e 1A70     		strb	r2, [r3]
 111              	.L5:
 129:.\Generated_Source\PSoC4/SPI_PM.c ****     }
 130:.\Generated_Source\PSoC4/SPI_PM.c **** 
 131:.\Generated_Source\PSoC4/SPI_PM.c ****     SPI_Stop();
 112              		.loc 1 131 0
 113 0020 FFF7FEFF 		bl	SPI_Stop
 132:.\Generated_Source\PSoC4/SPI_PM.c **** 
 133:.\Generated_Source\PSoC4/SPI_PM.c ****     SPI_SaveConfig();
 114              		.loc 1 133 0
 115 0024 FFF7FEFF 		bl	SPI_SaveConfig
 134:.\Generated_Source\PSoC4/SPI_PM.c **** }
 116              		.loc 1 134 0
 117 0028 BD46     		mov	sp, r7
 118              		@ sp needed for prologue
 119 002a 80BD     		pop	{r7, pc}
 120              	.L7:
 121              		.align	2
 122              	.L6:
 123 002c 93000F40 		.word	1074725011
 124 0030 00000000 		.word	SPI_backup
 125              		.cfi_endproc
 126              	.LFE2:
 127              		.size	SPI_Sleep, .-SPI_Sleep
 128              		.section	.text.SPI_Wakeup,"ax",%progbits
 129              		.align	2
 130              		.global	SPI_Wakeup
 131              		.code	16
 132              		.thumb_func
 133              		.type	SPI_Wakeup, %function
 134              	SPI_Wakeup:
 135              	.LFB3:
 135:.\Generated_Source\PSoC4/SPI_PM.c **** 
 136:.\Generated_Source\PSoC4/SPI_PM.c **** 
 137:.\Generated_Source\PSoC4/SPI_PM.c **** /*******************************************************************************
 138:.\Generated_Source\PSoC4/SPI_PM.c **** * Function Name: SPI_Wakeup
 139:.\Generated_Source\PSoC4/SPI_PM.c **** ********************************************************************************
 140:.\Generated_Source\PSoC4/SPI_PM.c **** *
 141:.\Generated_Source\PSoC4/SPI_PM.c **** * Summary:
 142:.\Generated_Source\PSoC4/SPI_PM.c **** *  Prepare SPIM Component to wake up.
 143:.\Generated_Source\PSoC4/SPI_PM.c **** *
 144:.\Generated_Source\PSoC4/SPI_PM.c **** * Parameters:
 145:.\Generated_Source\PSoC4/SPI_PM.c **** *  None.
 146:.\Generated_Source\PSoC4/SPI_PM.c **** *
 147:.\Generated_Source\PSoC4/SPI_PM.c **** * Return:
 148:.\Generated_Source\PSoC4/SPI_PM.c **** *  None.
 149:.\Generated_Source\PSoC4/SPI_PM.c **** *
 150:.\Generated_Source\PSoC4/SPI_PM.c **** * Global Variables:
ARM GAS  C:\Users\trehans\AppData\Local\Temp\ccVMRrIY.s 			page 6


 151:.\Generated_Source\PSoC4/SPI_PM.c **** *  SPI_backup - used when non-retention registers are restored.
 152:.\Generated_Source\PSoC4/SPI_PM.c **** *  SPI_txBufferWrite - modified every function call - resets to
 153:.\Generated_Source\PSoC4/SPI_PM.c **** *  zero.
 154:.\Generated_Source\PSoC4/SPI_PM.c **** *  SPI_txBufferRead - modified every function call - resets to
 155:.\Generated_Source\PSoC4/SPI_PM.c **** *  zero.
 156:.\Generated_Source\PSoC4/SPI_PM.c **** *  SPI_rxBufferWrite - modified every function call - resets to
 157:.\Generated_Source\PSoC4/SPI_PM.c **** *  zero.
 158:.\Generated_Source\PSoC4/SPI_PM.c **** *  SPI_rxBufferRead - modified every function call - resets to
 159:.\Generated_Source\PSoC4/SPI_PM.c **** *  zero.
 160:.\Generated_Source\PSoC4/SPI_PM.c **** *
 161:.\Generated_Source\PSoC4/SPI_PM.c **** * Reentrant:
 162:.\Generated_Source\PSoC4/SPI_PM.c **** *  No.
 163:.\Generated_Source\PSoC4/SPI_PM.c **** *
 164:.\Generated_Source\PSoC4/SPI_PM.c **** *******************************************************************************/
 165:.\Generated_Source\PSoC4/SPI_PM.c **** void SPI_Wakeup(void) 
 166:.\Generated_Source\PSoC4/SPI_PM.c **** {
 136              		.loc 1 166 0
 137              		.cfi_startproc
 138 0000 80B5     		push	{r7, lr}
 139              	.LCFI6:
 140              		.cfi_def_cfa_offset 8
 141              		.cfi_offset 7, -8
 142              		.cfi_offset 14, -4
 143 0002 00AF     		add	r7, sp, #0
 144              	.LCFI7:
 145              		.cfi_def_cfa_register 7
 167:.\Generated_Source\PSoC4/SPI_PM.c ****     SPI_RestoreConfig();
 146              		.loc 1 167 0
 147 0004 FFF7FEFF 		bl	SPI_RestoreConfig
 168:.\Generated_Source\PSoC4/SPI_PM.c **** 
 169:.\Generated_Source\PSoC4/SPI_PM.c ****     #if (SPI_TX_SOFTWARE_BUF_ENABLED)
 170:.\Generated_Source\PSoC4/SPI_PM.c ****         SPI_txBufferFull = 0u;
 171:.\Generated_Source\PSoC4/SPI_PM.c ****         SPI_txBufferRead = 0u;
 172:.\Generated_Source\PSoC4/SPI_PM.c ****         SPI_txBufferWrite = 0u;
 173:.\Generated_Source\PSoC4/SPI_PM.c ****     #endif /* SPI_TX_SOFTWARE_BUF_ENABLED */
 174:.\Generated_Source\PSoC4/SPI_PM.c **** 
 175:.\Generated_Source\PSoC4/SPI_PM.c ****     #if (SPI_RX_SOFTWARE_BUF_ENABLED)
 176:.\Generated_Source\PSoC4/SPI_PM.c ****         SPI_rxBufferFull = 0u;
 177:.\Generated_Source\PSoC4/SPI_PM.c ****         SPI_rxBufferRead = 0u;
 178:.\Generated_Source\PSoC4/SPI_PM.c ****         SPI_rxBufferWrite = 0u;
 179:.\Generated_Source\PSoC4/SPI_PM.c ****     #endif /* SPI_RX_SOFTWARE_BUF_ENABLED */
 180:.\Generated_Source\PSoC4/SPI_PM.c **** 
 181:.\Generated_Source\PSoC4/SPI_PM.c ****     SPI_ClearFIFO();
 148              		.loc 1 181 0
 149 0008 FFF7FEFF 		bl	SPI_ClearFIFO
 182:.\Generated_Source\PSoC4/SPI_PM.c **** 
 183:.\Generated_Source\PSoC4/SPI_PM.c ****     /* Restore components block enable state */
 184:.\Generated_Source\PSoC4/SPI_PM.c ****     if (SPI_backup.enableState != 0u)
 150              		.loc 1 184 0
 151 000c 034B     		ldr	r3, .L10
 152 000e 1B78     		ldrb	r3, [r3]
 153 0010 002B     		cmp	r3, #0
 154 0012 01D0     		beq	.L8
 185:.\Generated_Source\PSoC4/SPI_PM.c ****     {
 186:.\Generated_Source\PSoC4/SPI_PM.c ****          /* Components block was enabled */
 187:.\Generated_Source\PSoC4/SPI_PM.c ****          SPI_Enable();
 155              		.loc 1 187 0
ARM GAS  C:\Users\trehans\AppData\Local\Temp\ccVMRrIY.s 			page 7


 156 0014 FFF7FEFF 		bl	SPI_Enable
 157              	.L8:
 188:.\Generated_Source\PSoC4/SPI_PM.c ****     } /* Do nothing if components block was disabled */
 189:.\Generated_Source\PSoC4/SPI_PM.c **** }
 158              		.loc 1 189 0
 159 0018 BD46     		mov	sp, r7
 160              		@ sp needed for prologue
 161 001a 80BD     		pop	{r7, pc}
 162              	.L11:
 163              		.align	2
 164              	.L10:
 165 001c 00000000 		.word	SPI_backup
 166              		.cfi_endproc
 167              	.LFE3:
 168              		.size	SPI_Wakeup, .-SPI_Wakeup
 169              		.text
 170              	.Letext0:
 171              		.file 2 ".\\Generated_Source\\PSoC4\\cytypes.h"
 172              		.file 3 ".\\Generated_Source\\PSoC4\\SPI.h"